libaria2.so.0:_ZN5aria210AuthConfig6createENSt7__cxx1112basic_stringIcSt11char_traitsIcESaIcEEES6_
libaria2.so.0:_ZN5aria210AuthConfigC1ENSt7__cxx1112basic_stringIcSt11char_traitsIcESaIcEEES6_
libaria2.so.0:_ZN5aria210AuthConfigC1Ev
libaria2.so.0:_ZN5aria210AuthConfigC2ENSt7__cxx1112basic_stringIcSt11char_traitsIcESaIcEEES6_
libaria2.so.0:_ZN5aria210AuthConfigC2Ev
libaria2.so.0:_ZN5aria210AuthConfigD1Ev
libaria2.so.0:_ZN5aria210AuthConfigD2Ev
libaria2.so.0:_ZN5aria210BtRegistry19setUDPTrackerClientERKSt10shared_ptrINS_16UDPTrackerClientEE
libaria2.so.0:_ZN5aria210BtRegistry21setLpdMessageReceiverERKSt10shared_ptrINS_18LpdMessageReceiverEE
libaria2.so.0:_ZN5aria210BtRegistry3putEmSt10unique_ptrINS_8BtObjectESt14default_deleteIS2_EE
libaria2.so.0:_ZN5aria210BtRegistry6removeEm
libaria2.so.0:_ZN5aria210BtRegistry9removeAllEv
libaria2.so.0:_ZN5aria210BtRegistryC1Ev
libaria2.so.0:_ZN5aria210BtRegistryC2Ev
libaria2.so.0:_ZN5aria210DHTMessage21generateTransactionIDEv
libaria2.so.0:_ZN5aria210DHTMessageC1ERKSt10shared_ptrINS_7DHTNodeEES5_RKNSt7__cxx1112basic_stringIcSt11char_traitsIcESaIcEEE
libaria2.so.0:_ZN5aria210DHTMessageC2ERKSt10shared_ptrINS_7DHTNodeEES5_RKNSt7__cxx1112basic_stringIcSt11char_traitsIcESaIcEEE
libaria2.so.0:_ZN5aria210DHTMessageD0Ev
libaria2.so.0:_ZN5aria210DHTMessageD1Ev
libaria2.so.0:_ZN5aria210DHTMessageD2Ev
libaria2.so.0:_ZN5aria210DomainNode10findCookieERSt6vectorIPKNS_6CookieESaIS4_EERKNSt7__cxx1112basic_stringIcSt11char_traitsIcESaIcEEESF_lb
libaria2.so.0:_ZN5aria210DomainNode10removeNodeEPS0_
libaria2.so.0:_ZN5aria210DomainNode11clearCookieEv
libaria2.so.0:_ZN5aria210DomainNode16setLruAccessTimeEl
libaria2.so.0:_ZN5aria210DomainNode17setLastAccessTimeEl
libaria2.so.0:_ZN5aria210DomainNode7addNextENSt7__cxx1112basic_stringIcSt11char_traitsIcESaIcEEESt10unique_ptrIS0_St14default_deleteIS0_EE
libaria2.so.0:_ZN5aria210DomainNode8setInLruEb
libaria2.so.0:_ZN5aria210DomainNode9addCookieESt10unique_ptrINS_6CookieESt14default_deleteIS2_EEl
libaria2.so.0:_ZN5aria210DomainNodeC1ENSt7__cxx1112basic_stringIcSt11char_traitsIcESaIcEEEPS0_
libaria2.so.0:_ZN5aria210DomainNodeC2ENSt7__cxx1112basic_stringIcSt11char_traitsIcESaIcEEEPS0_
libaria2.so.0:_ZN5aria210HttpHeader10clearFieldEv
libaria2.so.0:_ZN5aria210HttpHeader10setVersionERKNSt7__cxx1112basic_stringIcSt11char_traitsIcESaIcEEE
libaria2.so.0:_ZN5aria210HttpHeader13fieldContainsEiPKc
libaria2.so.0:_ZN5aria210HttpHeader13setStatusCodeEi
libaria2.so.0:_ZN5aria210HttpHeader14setRequestPathERKNSt7__cxx1112basic_stringIcSt11char_traitsIcESaIcEEE
libaria2.so.0:_ZN5aria210HttpHeader15setReasonPhraseERKNSt7__cxx1112basic_stringIcSt11char_traitsIcESaIcEEE
libaria2.so.0:_ZN5aria210HttpHeader3putEiRKNSt7__cxx1112basic_stringIcSt11char_traitsIcESaIcEEE
libaria2.so.0:_ZN5aria210HttpHeader6removeEi
libaria2.so.0:_ZN5aria210HttpHeader9setMethodERKNSt7__cxx1112basic_stringIcSt11char_traitsIcESaIcEEE
libaria2.so.0:_ZN5aria210HttpHeaderC1Ev
libaria2.so.0:_ZN5aria210HttpHeaderC2Ev
libaria2.so.0:_ZN5aria210HttpHeaderD1Ev
libaria2.so.0:_ZN5aria210HttpHeaderD2Ev
libaria2.so.0:_ZN5aria210HttpServer11receiveBodyEv
libaria2.so.0:_ZN5aria210HttpServer12authenticateEv
libaria2.so.0:_ZN5aria210HttpServer12feedResponseENSt7__cxx1112basic_stringIcSt11char_traitsIcESaIcEEERKS6_
libaria2.so.0:_ZN5aria210HttpServer12feedResponseEiRKNSt7__cxx1112basic_stringIcSt11char_traitsIcESaIcEEES6_S8_
libaria2.so.0:_ZN5aria210HttpServer12sendResponseEv
libaria2.so.0:_ZN5aria210HttpServer14receiveRequestEv
libaria2.so.0:_ZN5aria210HttpServer17setupResponseRecvEv
libaria2.so.0:_ZN5aria210HttpServer19feedUpgradeResponseERKNSt7__cxx1112basic_stringIcSt11char_traitsIcESaIcEEES8_
libaria2.so.0:_ZN5aria210HttpServer19setUsernamePasswordERKNSt7__cxx1112basic_stringIcSt11char_traitsIcESaIcEEES8_
libaria2.so.0:_ZN5aria210HttpServerC1ERKSt10shared_ptrINS_10SocketCoreEE
libaria2.so.0:_ZN5aria210HttpServerC2ERKSt10shared_ptrINS_10SocketCoreEE
libaria2.so.0:_ZN5aria210HttpServerD1Ev
libaria2.so.0:_ZN5aria210HttpServerD2Ev
libaria2.so.0:_ZN5aria210LogFactory10openLoggerERKSt10shared_ptrINS_6LoggerEE
libaria2.so.0:_ZN5aria210LogFactory10setLogFileERKNSt7__cxx1112basic_stringIcSt11char_traitsIcESaIcEEE
libaria2.so.0:_ZN5aria210LogFactory11getInstanceEv
libaria2.so.0:_ZN5aria210LogFactory11reconfigureEv
libaria2.so.0:_ZN5aria210LogFactory11setLogLevelENS_6Logger5LEVELE
libaria2.so.0:_ZN5aria210LogFactory11setLogLevelERKNSt7__cxx1112basic_stringIcSt11char_traitsIcESaIcEEE
libaria2.so.0:_ZN5aria210LogFactory14setColorOutputEb
libaria2.so.0:_ZN5aria210LogFactory18setConsoleLogLevelENS_6Logger5LEVELE
libaria2.so.0:_ZN5aria210LogFactory18setConsoleLogLevelERKNSt7__cxx1112basic_stringIcSt11char_traitsIcESaIcEEE
libaria2.so.0:_ZN5aria210LogFactory21adjustDependentLevelsEv
libaria2.so.0:_ZN5aria210LogFactory7releaseEv
libaria2.so.0:_ZN5aria210LpdMessageC1ERKSt10shared_ptrINS_4PeerEERKNSt7__cxx1112basic_stringIcSt11char_traitsIcESaIcEEE
libaria2.so.0:_ZN5aria210LpdMessageC1Ev
libaria2.so.0:_ZN5aria210LpdMessageC2ERKSt10shared_ptrINS_4PeerEERKNSt7__cxx1112basic_stringIcSt11char_traitsIcESaIcEEE
libaria2.so.0:_ZN5aria210LpdMessageC2Ev
libaria2.so.0:_ZN5aria210LpdMessageD1Ev
libaria2.so.0:_ZN5aria210LpdMessageD2Ev
libaria2.so.0:_ZN5aria210Metalinker10queryEntryERKNSt7__cxx1112basic_stringIcSt11char_traitsIcESaIcEEES8_S8_
libaria2.so.0:_ZN5aria210Metalinker8addEntryESt10unique_ptrINS_13MetalinkEntryESt14default_deleteIS2_EE
libaria2.so.0:_ZN5aria210MetalinkerC1Ev
libaria2.so.0:_ZN5aria210MetalinkerC2Ev
libaria2.so.0:_ZN5aria210MetalinkerD1Ev
libaria2.so.0:_ZN5aria210MetalinkerD2Ev
libaria2.so.0:_ZN5aria210SHA1IOFile15onSupportsColorEv
libaria2.so.0:_ZN5aria210SHA1IOFile6digestB5cxx11Ev
libaria2.so.0:_ZN5aria210SHA1IOFile6onGetsEPci
libaria2.so.0:_ZN5aria210SHA1IOFile6onReadEPvm
libaria2.so.0:_ZN5aria210SHA1IOFile7onCloseEv
libaria2.so.0:_ZN5aria210SHA1IOFile7onFlushEv
libaria2.so.0:_ZN5aria210SHA1IOFile7onWriteEPKvm
libaria2.so.0:_ZN5aria210SHA1IOFile9onVprintfEPKcP13__va_list_tag
libaria2.so.0:_ZN5aria210SHA1IOFileC1Ev
libaria2.so.0:_ZN5aria210SHA1IOFileC2Ev
libaria2.so.0:_ZN5aria210SSHSession12authPasswordERKNSt7__cxx1112basic_stringIcSt11char_traitsIcESaIcEEES8_
libaria2.so.0:_ZN5aria210SSHSession14checkDirectionEv
libaria2.so.0:_ZN5aria210SSHSession15closeConnectionEv
libaria2.so.0:_ZN5aria210SSHSession16gracefulShutdownEv
libaria2.so.0:_ZN5aria210SSHSession18getLastErrorStringB5cxx11Ev
libaria2.so.0:_ZN5aria210SSHSession20hostkeyMessageDigestERKNSt7__cxx1112basic_stringIcSt11char_traitsIcESaIcEEE
libaria2.so.0:_ZN5aria210SSHSession4initEi
libaria2.so.0:_ZN5aria210SSHSession8readDataEPvm
libaria2.so.0:_ZN5aria210SSHSession8sftpOpenERKNSt7__cxx1112basic_stringIcSt11char_traitsIcESaIcEEE
libaria2.so.0:_ZN5aria210SSHSession8sftpSeekEl
libaria2.so.0:_ZN5aria210SSHSession8sftpStatERlS1_
libaria2.so.0:_ZN5aria210SSHSession9handshakeEv
libaria2.so.0:_ZN5aria210SSHSession9sftpCloseEv
libaria2.so.0:_ZN5aria210SSHSession9writeDataEPKvm
libaria2.so.0:_ZN5aria210SSHSessionC1Ev
libaria2.so.0:_ZN5aria210SSHSessionC2Ev
libaria2.so.0:_ZN5aria210SSHSessionD1Ev
libaria2.so.0:_ZN5aria210SSHSessionD2Ev
libaria2.so.0:_ZN5aria210SegmentMan10getSegmentERSt6vectorISt10shared_ptrINS_7SegmentEESaIS4_EElmRKS2_INS_9FileEntryEEm
libaria2.so.0:_ZN5aria210SegmentMan10getSegmentElm
libaria2.so.0:_ZN5aria210SegmentMan13cancelSegmentEl
libaria2.so.0:_ZN5aria210SegmentMan13cancelSegmentElRKSt10shared_ptrINS_7SegmentEE
libaria2.so.0:_ZN5aria210SegmentMan15checkoutSegmentElRKSt10shared_ptrINS_5PieceEE
libaria2.so.0:_ZN5aria210SegmentMan15completeSegmentElRKSt10shared_ptrINS_7SegmentEE
libaria2.so.0:_ZN5aria210SegmentMan15setPieceStorageERKSt10shared_ptrINS_12PieceStorageEE
libaria2.so.0:_ZN5aria210SegmentMan16ignoreSegmentForERKSt10shared_ptrINS_9FileEntryEE
libaria2.so.0:_ZN5aria210SegmentMan16registerPeerStatERKSt10shared_ptrINS_8PeerStatEE
libaria2.so.0:_ZN5aria210SegmentMan17cancelAllSegmentsEv
libaria2.so.0:_ZN5aria210SegmentMan18getInFlightSegmentERSt6vectorISt10shared_ptrINS_7SegmentEESaIS4_EEl
libaria2.so.0:_ZN5aria210SegmentMan18setDownloadContextERKSt10shared_ptrINS_15DownloadContextEE
libaria2.so.0:_ZN5aria210SegmentMan19getSegmentWithIndexElm
libaria2.so.0:_ZN5aria210SegmentMan19recognizeSegmentForERKSt10shared_ptrINS_9FileEntryEE
libaria2.so.0:_ZN5aria210SegmentMan21cancelSegmentInternalElRKSt10shared_ptrINS_7SegmentEE
libaria2.so.0:_ZN5aria210SegmentMan21updateFastestPeerStatERKSt10shared_ptrINS_8PeerStatEE
libaria2.so.0:_ZN5aria210SegmentMan28getCleanSegmentIfOwnerIsIdleElm
libaria2.so.0:_ZN5aria210SegmentMan29eraseSegmentWrittenLengthMemoEv
libaria2.so.0:_ZN5aria210SegmentMan4initEv
libaria2.so.0:_ZN5aria210SegmentManC1ERKSt10shared_ptrINS_15DownloadContextEERKS1_INS_12PieceStorageEE
libaria2.so.0:_ZN5aria210SegmentManC2ERKSt10shared_ptrINS_15DownloadContextEERKS1_INS_12PieceStorageEE
libaria2.so.0:_ZN5aria210SegmentManD1Ev
libaria2.so.0:_ZN5aria210SegmentManD2Ev
libaria2.so.0:_ZN5aria210ServerStat10setCounterEi
libaria2.so.0:_ZN5aria210ServerStat14setLastUpdatedERKNS_4TimeE
libaria2.so.0:_ZN5aria210ServerStat15increaseCounterEv
libaria2.so.0:_ZN5aria210ServerStat16setDownloadSpeedEi
libaria2.so.0:_ZN5aria210ServerStat17setStatusInternalENS0_6STATUSE
libaria2.so.0:_ZN5aria210ServerStat19updateDownloadSpeedEi
libaria2.so.0:_ZN5aria210ServerStat26setMultiConnectionAvgSpeedEi
libaria2.so.0:_ZN5aria210ServerStat27setSingleConnectionAvgSpeedEi
libaria2.so.0:_ZN5aria210ServerStat29updateMultiConnectionAvgSpeedEi
libaria2.so.0:_ZN5aria210ServerStat30updateSingleConnectionAvgSpeedEi
libaria2.so.0:_ZN5aria210ServerStat5setOKEv
libaria2.so.0:_ZN5aria210ServerStat8setErrorEv
libaria2.so.0:_ZN5aria210ServerStat9setStatusENS0_6STATUSE
libaria2.so.0:_ZN5aria210ServerStat9setStatusERKNSt7__cxx1112basic_stringIcSt11char_traitsIcESaIcEEE
libaria2.so.0:_ZN5aria210ServerStatC1ERKNSt7__cxx1112basic_stringIcSt11char_traitsIcESaIcEEES8_
libaria2.so.0:_ZN5aria210ServerStatC2ERKNSt7__cxx1112basic_stringIcSt11char_traitsIcESaIcEEES8_
libaria2.so.0:_ZN5aria210ServerStatD1Ev
libaria2.so.0:_ZN5aria210ServerStatD2Ev
libaria2.so.0:_ZN5aria210SocketCore10isReadableEl
libaria2.so.0:_ZN5aria210SocketCore10isWritableEl
libaria2.so.0:_ZN5aria210SocketCore10setSockOptEiiPvj
libaria2.so.0:_ZN5aria210SocketCore10tlsConnectERKNSt7__cxx1112basic_stringIcSt11char_traitsIcESaIcEEE
libaria2.so.0:_ZN5aria210SocketCore11applyIpDscpEv
libaria2.so.0:_ZN5aria210SocketCore11beginListenEv
libaria2.so.0:_ZN5aria210SocketCore11bindAddressERKNSt7__cxx1112basic_stringIcSt11char_traitsIcESaIcEEE
libaria2.so.0:_ZN5aria210SocketCore11sshSFTPOpenERKNSt7__cxx1112basic_stringIcSt11char_traitsIcESaIcEEE
libaria2.so.0:_ZN5aria210SocketCore11sshSFTPSeekEl
libaria2.so.0:_ZN5aria210SocketCore11sshSFTPStatERlS1_RKNSt7__cxx1112basic_stringIcSt11char_traitsIcESaIcEEE
libaria2.so.0:_ZN5aria210SocketCore11writeVectorEP5iovecm
libaria2.so.0:_ZN5aria210SocketCore12readDataFromEPvmR8Endpoint
libaria2.so.0:_ZN5aria210SocketCore12sshHandshakeERKNSt7__cxx1112basic_stringIcSt11char_traitsIcESaIcEEES8_
libaria2.so.0:_ZN5aria210SocketCore12sshSFTPCloseEv
libaria2.so.0:_ZN5aria210SocketCore12tlsHandshakeEPNS_10TLSContextERKNSt7__cxx1112basic_stringIcSt11char_traitsIcESaIcEEE
libaria2.so.0:_ZN5aria210SocketCore13setTcpNodelayEb
libaria2.so.0:_ZN5aria210SocketCore14bindAllAddressERKNSt7__cxx1112basic_stringIcSt11char_traitsIcESaIcEEE
libaria2.so.0:_ZN5aria210SocketCore14bindWithFamilyEtii
libaria2.so.0:_ZN5aria210SocketCore15closeConnectionEv
libaria2.so.0:_ZN5aria210SocketCore15setBlockingModeEv
libaria2.so.0:_ZN5aria210SocketCore15setMulticastTtlEh
libaria2.so.0:_ZN5aria210SocketCore15sshAuthPasswordERKNSt7__cxx1112basic_stringIcSt11char_traitsIcESaIcEEES8_
libaria2.so.0:_ZN5aria210SocketCore16setMulticastLoopEh
libaria2.so.0:_ZN5aria210SocketCore17sshCheckDirectionEv
libaria2.so.0:_ZN5aria210SocketCore18joinMulticastGroupERKNSt7__cxx1112basic_stringIcSt11char_traitsIcESaIcEEEtS8_
libaria2.so.0:_ZN5aria210SocketCore18setNonBlockingModeEv
libaria2.so.0:_ZN5aria210SocketCore19establishConnectionERKNSt7__cxx1112basic_stringIcSt11char_traitsIcESaIcEEEtb
libaria2.so.0:_ZN5aria210SocketCore19getInterfaceAddressERKNSt7__cxx1112basic_stringIcSt11char_traitsIcESaIcEEEii
libaria2.so.0:_ZN5aria210SocketCore19setClientTLSContextERKSt10shared_ptrINS_10TLSContextEE
libaria2.so.0:_ZN5aria210SocketCore19setServerTLSContextERKSt10shared_ptrINS_10TLSContextEE
libaria2.so.0:_ZN5aria210SocketCore19sshGracefulShutdownEv
libaria2.so.0:_ZN5aria210SocketCore21setMulticastInterfaceERKNSt7__cxx1112basic_stringIcSt11char_traitsIcESaIcEEE
libaria2.so.0:_ZN5aria210SocketCore23getSocketRecvBufferSizeEv
libaria2.so.0:_ZN5aria210SocketCore23setSocketRecvBufferSizeEi
libaria2.so.0:_ZN5aria210SocketCore4bindEPK8sockaddrj
libaria2.so.0:_ZN5aria210SocketCore4bindEPKctii
libaria2.so.0:_ZN5aria210SocketCore4bindEti
libaria2.so.0:_ZN5aria210SocketCore4initEv
libaria2.so.0:_ZN5aria210SocketCore6createEii
libaria2.so.0:_ZN5aria210SocketCore8readDataEPvRm
libaria2.so.0:_ZN5aria210SocketCore9tlsAcceptEv
libaria2.so.0:_ZN5aria210SocketCore9writeDataEPKvm
libaria2.so.0:_ZN5aria210SocketCore9writeDataEPKvmRKNSt7__cxx1112basic_stringIcSt11char_traitsIcESaIcEEEt
libaria2.so.0:_ZN5aria210SocketCoreC1Ei
libaria2.so.0:_ZN5aria210SocketCoreC1Eii
libaria2.so.0:_ZN5aria210SocketCoreC2Ei
libaria2.so.0:_ZN5aria210SocketCoreC2Eii
libaria2.so.0:_ZN5aria210SocketCoreD1Ev
libaria2.so.0:_ZN5aria210SocketCoreD2Ev
libaria2.so.0:_ZN5aria210TLSContext4makeENS_14TLSSessionSideENS_10TLSVersionE
libaria2.so.0:_ZN5aria210TLSSession4makeEPNS_10TLSContextE
libaria2.so.0:_ZN5aria210addTorrentEPNS_7SessionEPmRKNSt7__cxx1112basic_stringIcSt11char_traitsIcESaIcEEERKSt6vectorIS8_SaIS8_EERKSB_ISt4pairIS8_S8_ESaISH_EEi
libaria2.so.0:_ZN5aria210addTorrentEPNS_7SessionEPmRKNSt7__cxx1112basic_stringIcSt11char_traitsIcESaIcEEERKSt6vectorISt4pairIS8_S8_ESaISD_EEi
libaria2.so.0:_ZN5aria210bittorrent10checkBeginEii
libaria2.so.0:_ZN5aria210bittorrent10checkIndexEmm
libaria2.so.0:_ZN5aria210bittorrent10checkRangeEiii
libaria2.so.0:_ZN5aria210bittorrent10loadMagnetERKNSt7__cxx1112basic_stringIcSt11char_traitsIcESaIcEEERKSt10shared_ptrINS_15DownloadContextEE
libaria2.so.0:_ZN5aria210bittorrent11checkLengthEi
libaria2.so.0:_ZN5aria210bittorrent11getInfoHashEPNS_15DownloadContextE
libaria2.so.0:_ZN5aria210bittorrent11getInfoHashERKSt10shared_ptrINS_15DownloadContextEE
libaria2.so.0:_ZN5aria210bittorrent11getIntParamEPKhm
libaria2.so.0:_ZN5aria210bittorrent11packcompactEPhRKNSt7__cxx1112basic_stringIcSt11char_traitsIcESaIcEEEt
libaria2.so.0:_ZN5aria210bittorrent11parseMagnetERKNSt7__cxx1112basic_stringIcSt11char_traitsIcESaIcEEE
libaria2.so.0:_ZN5aria210bittorrent11setIntParamEPhj
libaria2.so.0:_ZN5aria210bittorrent13BencodeParser10onValueEndEv
libaria2.so.0:_ZN5aria210bittorrent13BencodeParser10parseFinalEPKcm
libaria2.so.0:_ZN5aria210bittorrent13BencodeParser11onNumberEndEv
libaria2.so.0:_ZN5aria210bittorrent13BencodeParser11onStringEndEv
libaria2.so.0:_ZN5aria210bittorrent13BencodeParser11parseUpdateEPKcm
libaria2.so.0:_ZN5aria210bittorrent13BencodeParser14runEndCallbackEi
libaria2.so.0:_ZN5aria210bittorrent13BencodeParser16runBeginCallbackEi
libaria2.so.0:_ZN5aria210bittorrent13BencodeParser17runNumberCallbackEl
libaria2.so.0:_ZN5aria210bittorrent13BencodeParser21runCharactersCallbackEPKcm
libaria2.so.0:_ZN5aria210bittorrent13BencodeParser5resetEv
libaria2.so.0:_ZN5aria210bittorrent13BencodeParser8popStateEv
libaria2.so.0:_ZN5aria210bittorrent13BencodeParser9onDictEndEv
libaria2.so.0:_ZN5aria210bittorrent13BencodeParser9onListEndEv
libaria2.so.0:_ZN5aria210bittorrent13BencodeParser9pushStateEi
libaria2.so.0:_ZN5aria210bittorrent13BencodeParserC1EPNS_24StructParserStateMachineE
libaria2.so.0:_ZN5aria210bittorrent13BencodeParserC2EPNS_24StructParserStateMachineE
libaria2.so.0:_ZN5aria210bittorrent13BencodeParserD1Ev
libaria2.so.0:_ZN5aria210bittorrent13BencodeParserD2Ev
libaria2.so.0:_ZN5aria210bittorrent13checkBitfieldEPKhmm
libaria2.so.0:_ZN5aria210bittorrent13getLLIntParamEPKhm
libaria2.so.0:_ZN5aria210bittorrent13getModeStringENS_10BtFileModeE
libaria2.so.0:_ZN5aria210bittorrent13setLLIntParamEPhm
libaria2.so.0:_ZN5aria210bittorrent13unpackcompactB5cxx11EPKhi
libaria2.so.0:_ZN5aria210bittorrent14addAnnounceUriEPNS_16TorrentAttributeERKSt6vectorINSt7__cxx1112basic_stringIcSt11char_traitsIcESaIcEEESaIS9_EE
libaria2.so.0:_ZN5aria210bittorrent14computeFastSetERKNSt7__cxx1112basic_stringIcSt11char_traitsIcESaIcEEEmPKhm
libaria2.so.0:_ZN5aria210bittorrent14generatePeerIdERKNSt7__cxx1112basic_stringIcSt11char_traitsIcESaIcEEE
libaria2.so.0:_ZN5aria210bittorrent14loadFromMemoryEPKNS_9ValueBaseERKSt10shared_ptrINS_15DownloadContextEERKS4_INS_6OptionEERKSt6vectorINSt7__cxx1112basic_stringIcSt11char_traitsIcESaIcEEESaISJ_EERKSJ_SP_
libaria2.so.0:_ZN5aria210bittorrent14loadFromMemoryEPKhmRKSt10shared_ptrINS_15DownloadContextEERKS3_INS_6OptionEERKNSt7__cxx1112basic_stringIcSt11char_traitsIcESaIcEEESJ_
libaria2.so.0:_ZN5aria210bittorrent14loadFromMemoryEPKhmRKSt10shared_ptrINS_15DownloadContextEERKS3_INS_6OptionEERKSt6vectorINSt7__cxx1112basic_stringIcSt11char_traitsIcESaIcEEESaISI_EERKSI_SO_
libaria2.so.0:_ZN5aria210bittorrent14loadFromMemoryERKNSt7__cxx1112basic_stringIcSt11char_traitsIcESaIcEEERKSt10shared_ptrINS_15DownloadContextEERKS9_INS_6OptionEERKSt6vectorIS6_SaIS6_EES8_S8_
libaria2.so.0:_ZN5aria210bittorrent14loadFromMemoryERKNSt7__cxx1112basic_stringIcSt11char_traitsIcESaIcEEERKSt10shared_ptrINS_15DownloadContextEERKS9_INS_6OptionEES8_S8_
libaria2.so.0:_ZN5aria210bittorrent14torrent2MagnetB5cxx11EPKNS_16TorrentAttributeE
libaria2.so.0:_ZN5aria210bittorrent15getStaticPeerIdEv
libaria2.so.0:_ZN5aria210bittorrent15getTorrentAttrsEPNS_15DownloadContextE
libaria2.so.0:_ZN5aria210bittorrent15getTorrentAttrsERKSt10shared_ptrINS_15DownloadContextEE
libaria2.so.0:_ZN5aria210bittorrent15setStaticPeerIdERKNSt7__cxx1112basic_stringIcSt11char_traitsIcESaIcEEE
libaria2.so.0:_ZN5aria210bittorrent16createLpdRequestERKNSt7__cxx1112basic_stringIcSt11char_traitsIcESaIcEEEtS8_t
libaria2.so.0:_ZN5aria210bittorrent16getCompactLengthEi
libaria2.so.0:_ZN5aria210bittorrent16getShortIntParamEPKhm
libaria2.so.0:_ZN5aria210bittorrent16metadata2TorrentERKNSt7__cxx1112basic_stringIcSt11char_traitsIcESaIcEEEPKNS_16TorrentAttributeE
libaria2.so.0:_ZN5aria210bittorrent16setShortIntParamEPht
libaria2.so.0:_ZN5aria210bittorrent17adjustAnnounceUriEPNS_16TorrentAttributeERKSt10shared_ptrINS_6OptionEE
libaria2.so.0:_ZN5aria210bittorrent17getInfoHashStringB5cxx11EPNS_15DownloadContextE
libaria2.so.0:_ZN5aria210bittorrent17getInfoHashStringB5cxx11ERKSt10shared_ptrINS_15DownloadContextEE
libaria2.so.0:_ZN5aria210bittorrent17removeAnnounceUriEPNS_16TorrentAttributeERKSt6vectorINSt7__cxx1112basic_stringIcSt11char_traitsIcESaIcEEESaIS9_EE
libaria2.so.0:_ZN5aria210bittorrent18getStaticPeerAgentB5cxx11Ev
libaria2.so.0:_ZN5aria210bittorrent18setStaticPeerAgentERKNSt7__cxx1112basic_stringIcSt11char_traitsIcESaIcEEE
libaria2.so.0:_ZN5aria210bittorrent20generateStaticPeerIdERKNSt7__cxx1112basic_stringIcSt11char_traitsIcESaIcEEE
libaria2.so.0:_ZN5aria210bittorrent23createPeerMessageStringEPhmmh
libaria2.so.0:_ZN5aria210bittorrent23generateStaticPeerAgentERKNSt7__cxx1112basic_stringIcSt11char_traitsIcESaIcEEE
libaria2.so.0:_ZN5aria210bittorrent24assertPayloadLengthEqualEmmPKc
libaria2.so.0:_ZN5aria210bittorrent26assertPayloadLengthGreaterEmmPKc
libaria2.so.0:_ZN5aria210bittorrent4loadERKNSt7__cxx1112basic_stringIcSt11char_traitsIcESaIcEEERKSt10shared_ptrINS_15DownloadContextEERKS9_INS_6OptionEERKSt6vectorIS6_SaIS6_EES8_
libaria2.so.0:_ZN5aria210bittorrent4loadERKNSt7__cxx1112basic_stringIcSt11char_traitsIcESaIcEEERKSt10shared_ptrINS_15DownloadContextEERKS9_INS_6OptionEES8_
libaria2.so.0:_ZN5aria210bittorrent5getIdEPKh
libaria2.so.0:_ZN5aria210bittorrent8assertIDEhPKhPKc
libaria2.so.0:_ZN5aria210sessionNewERKSt6vectorISt4pairINSt7__cxx1112basic_stringIcSt11char_traitsIcESaIcEEES7_ESaIS8_EERKNS_13SessionConfigE
libaria2.so.0:_ZN5aria210strHelpTagEj
libaria2.so.0:_ZN5aria211BitfieldMan11clearAllBitEv
libaria2.so.0:_ZN5aria211BitfieldMan11clearFilterEv
libaria2.so.0:_ZN5aria211BitfieldMan11setBitRangeEmm
libaria2.so.0:_ZN5aria211BitfieldMan11setBitfieldEPKhm
libaria2.so.0:_ZN5aria211BitfieldMan11unsetUseBitEm
libaria2.so.0:_ZN5aria211BitfieldMan11updateCacheEv
libaria2.so.0:_ZN5aria211BitfieldMan12addNotFilterEll
libaria2.so.0:_ZN5aria211BitfieldMan12enableFilterEv
libaria2.so.0:_ZN5aria211BitfieldMan12removeFilterEll
libaria2.so.0:_ZN5aria211BitfieldMan12setAllUseBitEv
libaria2.so.0:_ZN5aria211BitfieldMan12setFilterBitEm
libaria2.so.0:_ZN5aria211BitfieldMan13disableFilterEv
libaria2.so.0:_ZN5aria211BitfieldMan13unsetBitRangeEmm
libaria2.so.0:_ZN5aria211BitfieldMan14clearAllUseBitEv
libaria2.so.0:_ZN5aria211BitfieldMan14setBitInternalEPhmb
libaria2.so.0:_ZN5aria211BitfieldMan20ensureFilterBitfieldEv
libaria2.so.0:_ZN5aria211BitfieldMan5RangeC1Emm
libaria2.so.0:_ZN5aria211BitfieldMan5RangeC2Emm
libaria2.so.0:_ZN5aria211BitfieldMan6setBitEm
libaria2.so.0:_ZN5aria211BitfieldMan8unsetBitEm
libaria2.so.0:_ZN5aria211BitfieldMan9addFilterEll
libaria2.so.0:_ZN5aria211BitfieldMan9setAllBitEv
libaria2.so.0:_ZN5aria211BitfieldMan9setUseBitEm
libaria2.so.0:_ZN5aria211BitfieldManC1ERKS0_
libaria2.so.0:_ZN5aria211BitfieldManC1Eil
libaria2.so.0:_ZN5aria211BitfieldManC2ERKS0_
libaria2.so.0:_ZN5aria211BitfieldManC2Eil
libaria2.so.0:_ZN5aria211BitfieldManD1Ev
libaria2.so.0:_ZN5aria211BitfieldManD2Ev
libaria2.so.0:_ZN5aria211BitfieldManaSERKS0_
libaria2.so.0:_ZN5aria211CUIDCounter5newIDEv
libaria2.so.0:_ZN5aria211CUIDCounterC1Ev
libaria2.so.0:_ZN5aria211CUIDCounterC2Ev
libaria2.so.0:_ZN5aria211CUIDCounterD1Ev
libaria2.so.0:_ZN5aria211CUIDCounterD2Ev
libaria2.so.0:_ZN5aria211DHTPingTask10addMessageEv
libaria2.so.0:_ZN5aria211DHTPingTask10onReceivedEPKNS_19DHTPingReplyMessageE
libaria2.so.0:_ZN5aria211DHTPingTask7startupEv
libaria2.so.0:_ZN5aria211DHTPingTask9onTimeoutERKSt10shared_ptrINS_7DHTNodeEE
libaria2.so.0:_ZN5aria211DHTPingTaskC1ERKSt10shared_ptrINS_7DHTNodeEEi
libaria2.so.0:_ZN5aria211DHTPingTaskC2ERKSt10shared_ptrINS_7DHTNodeEEi
libaria2.so.0:_ZN5aria211DHTPingTaskD0Ev
libaria2.so.0:_ZN5aria211DHTPingTaskD1Ev
libaria2.so.0:_ZN5aria211DHTPingTaskD2Ev
libaria2.so.0:_ZN5aria211DHTRegistry10clearData6Ev
libaria2.so.0:_ZN5aria211DHTRegistry5clearERNS0_4DataE
libaria2.so.0:_ZN5aria211DHTRegistry9clearDataEv
libaria2.so.0:_ZN5aria211DiskAdaptorC1Ev
libaria2.so.0:_ZN5aria211DiskAdaptorC2Ev
libaria2.so.0:_ZN5aria211DiskAdaptorD0Ev
libaria2.so.0:_ZN5aria211DiskAdaptorD1Ev
libaria2.so.0:_ZN5aria211DiskAdaptorD2Ev
libaria2.so.0:_ZN5aria211GZipEncoder3strB5cxx11Ev
libaria2.so.0:_ZN5aria211GZipEncoder4initEv
libaria2.so.0:_ZN5aria211GZipEncoder5writeEPKcm
libaria2.so.0:_ZN5aria211GZipEncoder6encodeB5cxx11EPKhmi
libaria2.so.0:_ZN5aria211GZipEncoder7releaseEv
libaria2.so.0:_ZN5aria211GZipEncoderC1Ev
libaria2.so.0:_ZN5aria211GZipEncoderC2Ev
libaria2.so.0:_ZN5aria211GZipEncoderD1Ev
libaria2.so.0:_ZN5aria211GZipEncoderD2Ev
libaria2.so.0:_ZN5aria211GZipEncoderlsEPKc
libaria2.so.0:_ZN5aria211GZipEncoderlsERKNSt7__cxx1112basic_stringIcSt11char_traitsIcESaIcEEE
libaria2.so.0:_ZN5aria211GZipEncoderlsEl
libaria2.so.0:_ZN5aria211GrowSegment19updateWrittenLengthEl
libaria2.so.0:_ZN5aria211GrowSegment5clearEPNS_11WrDiskCacheE
libaria2.so.0:_ZN5aria211GrowSegment9getDigestB5cxx11Ev
libaria2.so.0:_ZN5aria211GrowSegmentC1ERKSt10shared_ptrINS_5PieceEE
libaria2.so.0:_ZN5aria211GrowSegmentC2ERKSt10shared_ptrINS_5PieceEE
libaria2.so.0:_ZN5aria211GrowSegmentD0Ev
libaria2.so.0:_ZN5aria211GrowSegmentD1Ev
libaria2.so.0:_ZN5aria211GrowSegmentD2Ev
libaria2.so.0:_ZN5aria211HttpRequest10setRequestESt10shared_ptrINS_7RequestEE
libaria2.so.0:_ZN5aria211HttpRequest10setSegmentESt10shared_ptrINS_7SegmentEE
libaria2.so.0:_ZN5aria211HttpRequest11clearHeaderEv
libaria2.so.0:_ZN5aria211HttpRequest12setFileEntryESt10shared_ptrINS_9FileEntryEE
libaria2.so.0:_ZN5aria211HttpRequest12setUserAgentENSt7__cxx1112basic_stringIcSt11char_traitsIcESaIcEEE
libaria2.so.0:_ZN5aria211HttpRequest13createRequestB5cxx11Ev
libaria2.so.0:_ZN5aria211HttpRequest15setProxyRequestESt10shared_ptrINS_7RequestEE
libaria2.so.0:_ZN5aria211HttpRequest16setCookieStorageEPNS_13CookieStorageE
libaria2.so.0:_ZN5aria211HttpRequest20setAuthConfigFactoryEPNS_17AuthConfigFactoryE
libaria2.so.0:_ZN5aria211HttpRequest21enableContentEncodingEv
libaria2.so.0:_ZN5aria211HttpRequest22disableContentEncodingEv
libaria2.so.0:_ZN5aria211HttpRequest24setIfModifiedSinceHeaderENSt7__cxx1112basic_stringIcSt11char_traitsIcESaIcEEE
libaria2.so.0:_ZN5aria211HttpRequest9addHeaderERKNSt7__cxx1112basic_stringIcSt11char_traitsIcESaIcEEE
libaria2.so.0:_ZN5aria211HttpRequest9setOptionEPKNS_6OptionE
libaria2.so.0:_ZN5aria211HttpRequestC1Ev
libaria2.so.0:_ZN5aria211HttpRequestC2Ev
libaria2.so.0:_ZN5aria211HttpRequestD1Ev
libaria2.so.0:_ZN5aria211HttpRequestD2Ev
libaria2.so.0:_ZN5aria211WrDiskCache11ensureLimitEv
libaria2.so.0:_ZN5aria211WrDiskCache3addEPNS_16WrDiskCacheEntryE
libaria2.so.0:_ZN5aria211WrDiskCache6removeEPNS_16WrDiskCacheEntryE
libaria2.so.0:_ZN5aria211WrDiskCache6updateEPNS_16WrDiskCacheEntryEl
libaria2.so.0:_ZN5aria211WrDiskCacheC1Em
libaria2.so.0:_ZN5aria211WrDiskCacheC2Em
libaria2.so.0:_ZN5aria211WrDiskCacheD1Ev
libaria2.so.0:_ZN5aria211WrDiskCacheD2Ev
libaria2.so.0:_ZN5aria211addMetalinkEPNS_7SessionEPSt6vectorImSaImEERKNSt7__cxx1112basic_stringIcSt11char_traitsIcESaIcEEERKS2_ISt4pairISB_SB_ESaISF_EEi
libaria2.so.0:_ZN5aria211getProxyUriERKNSt7__cxx1112basic_stringIcSt11char_traitsIcESaIcEEEPKNS_6OptionE
libaria2.so.0:_ZN5aria211libraryInitEv
libaria2.so.0:_ZN5aria211showVersionEv
libaria2.so.0:_ZN5aria212AnnounceList11reconfigureERKNSt7__cxx1112basic_stringIcSt11char_traitsIcESaIcEEE
libaria2.so.0:_ZN5aria212AnnounceList11reconfigureERKSt6vectorIS1_INSt7__cxx1112basic_stringIcSt11char_traitsIcESaIcEEESaIS7_EESaIS9_EE
libaria2.so.0:_ZN5aria212AnnounceList13resetIteratorEv
libaria2.so.0:_ZN5aria212AnnounceList14setCurrentTierESt15_Deque_iteratorISt10shared_ptrINS_12AnnounceTierEERS4_PS4_E
libaria2.so.0:_ZN5aria212AnnounceList15announceFailureEv
libaria2.so.0:_ZN5aria212AnnounceList15announceSuccessEv
libaria2.so.0:_ZN5aria212AnnounceList24moveToStoppedAllowedTierEv
libaria2.so.0:_ZN5aria212AnnounceList26moveToCompletedAllowedTierEv
libaria2.so.0:_ZN5aria212AnnounceList7shuffleEv
libaria2.so.0:_ZN5aria212AnnounceList8setEventENS_12AnnounceTier13AnnounceEventE
libaria2.so.0:_ZN5aria212AnnounceList9resetTierEv
libaria2.so.0:_ZN5aria212AnnounceListC1ERKSt5dequeISt10shared_ptrINS_12AnnounceTierEESaIS4_EE
libaria2.so.0:_ZN5aria212AnnounceListC1ERKSt6vectorIS1_INSt7__cxx1112basic_stringIcSt11char_traitsIcESaIcEEESaIS7_EESaIS9_EE
libaria2.so.0:_ZN5aria212AnnounceListC1Ev
libaria2.so.0:_ZN5aria212AnnounceListC2ERKSt5dequeISt10shared_ptrINS_12AnnounceTierEESaIS4_EE
libaria2.so.0:_ZN5aria212AnnounceListC2ERKSt6vectorIS1_INSt7__cxx1112basic_stringIcSt11char_traitsIcESaIcEEESaIS7_EESaIS9_EE
libaria2.so.0:_ZN5aria212AnnounceListC2Ev
libaria2.so.0:_ZN5aria212AnnounceListD1Ev
libaria2.so.0:_ZN5aria212AnnounceListD2Ev
libaria2.so.0:_ZN5aria212AnnounceTier23nextEventIfAfterStartedEv
libaria2.so.0:_ZN5aria212AnnounceTier9nextEventEv
libaria2.so.0:_ZN5aria212AnnounceTierC1ESt5dequeINSt7__cxx1112basic_stringIcSt11char_traitsIcESaIcEEESaIS7_EE
libaria2.so.0:_ZN5aria212AnnounceTierC2ESt5dequeINSt7__cxx1112basic_stringIcSt11char_traitsIcESaIcEEESaIS7_EE
libaria2.so.0:_ZN5aria212AnnounceTierD1Ev
libaria2.so.0:_ZN5aria212AnnounceTierD2Ev
libaria2.so.0:_ZN5aria212BtDependency7resolveEv
libaria2.so.0:_ZN5aria212BtDependencyC1EPNS_12RequestGroupERKSt10shared_ptrIS1_E
libaria2.so.0:_ZN5aria212BtDependencyC2EPNS_12RequestGroupERKSt10shared_ptrIS1_E
libaria2.so.0:_ZN5aria212BtDependencyD0Ev
libaria2.so.0:_ZN5aria212BtDependencyD1Ev
libaria2.so.0:_ZN5aria212BtDependencyD2Ev
libaria2.so.0:_ZN5aria212BufferedFile15onSupportsColorEv
libaria2.so.0:_ZN5aria212BufferedFile6onGetsEPci
libaria2.so.0:_ZN5aria212BufferedFile6onReadEPvm
libaria2.so.0:_ZN5aria212BufferedFile7onCloseEv
libaria2.so.0:_ZN5aria212BufferedFile7onFlushEv
libaria2.so.0:_ZN5aria212BufferedFile7onWriteEPKvm
libaria2.so.0:_ZN5aria212BufferedFile9onVprintfEPKcP13__va_list_tag
libaria2.so.0:_ZN5aria212BufferedFileC1EP8_IO_FILE
libaria2.so.0:_ZN5aria212BufferedFileC1EPKcS2_
libaria2.so.0:_ZN5aria212BufferedFileC2EP8_IO_FILE
libaria2.so.0:_ZN5aria212BufferedFileC2EPKcS2_
libaria2.so.0:_ZN5aria212BufferedFileD0Ev
libaria2.so.0:_ZN5aria212BufferedFileD1Ev
libaria2.so.0:_ZN5aria212BufferedFileD2Ev
libaria2.so.0:_ZN5aria212HttpResponse13setHttpHeaderESt10unique_ptrINS_10HttpHeaderESt14default_deleteIS2_EE
libaria2.so.0:_ZN5aria212HttpResponse14retrieveCookieEv
libaria2.so.0:_ZN5aria212HttpResponse14setHttpRequestESt10unique_ptrINS_11HttpRequestESt14default_deleteIS2_EE
libaria2.so.0:_ZN5aria212HttpResponse15processRedirectEv
libaria2.so.0:_ZN5aria212HttpResponseC1Ev
libaria2.so.0:_ZN5aria212HttpResponseC2Ev
libaria2.so.0:_ZN5aria212MSEHandshake10initCipherEPKh
libaria2.so.0:_ZN5aria212MSEHandshake10receivePadEv
libaria2.so.0:_ZN5aria212MSEHandshake11shiftBufferEm
libaria2.so.0:_ZN5aria212MSEHandshake12popDecryptorEv
libaria2.so.0:_ZN5aria212MSEHandshake12popEncryptorEv
libaria2.so.0:_ZN5aria212MSEHandshake13sendPublicKeyEv
libaria2.so.0:_ZN5aria212MSEHandshake14decodeLength16EPKh
libaria2.so.0:_ZN5aria212MSEHandshake14verifyReq1HashEPKh
libaria2.so.0:_ZN5aria212MSEHandshake15verifyPadLengthEPKhPKc
libaria2.so.0:_ZN5aria212MSEHandshake16receivePublicKeyEv
libaria2.so.0:_ZN5aria212MSEHandshake17receiveReceiverIAEv
libaria2.so.0:_ZN5aria212MSEHandshake17sendReceiverStep2Ev
libaria2.so.0:_ZN5aria212MSEHandshake18encryptAndSendDataESt6vectorIhSaIhEE
libaria2.so.0:_ZN5aria212MSEHandshake18sendInitiatorStep2Ev
libaria2.so.0:_ZN5aria212MSEHandshake21findInitiatorVCMarkerEv
libaria2.so.0:_ZN5aria212MSEHandshake21identifyHandshakeTypeEv
libaria2.so.0:_ZN5aria212MSEHandshake22findReceiverHashMarkerEv
libaria2.so.0:_ZN5aria212MSEHandshake22initEncryptionFacilityEb
libaria2.so.0:_ZN5aria212MSEHandshake23receiveReceiverIALengthEv
libaria2.so.0:_ZN5aria212MSEHandshake32receiveReceiverHashAndPadCLengthERKSt6vectorISt10shared_ptrINS_15DownloadContextEESaIS4_EE
libaria2.so.0:_ZN5aria212MSEHandshake41receiveInitiatorCryptoSelectAndPadDLengthEv
libaria2.so.0:_ZN5aria212MSEHandshake4readEv
libaria2.so.0:_ZN5aria212MSEHandshake4sendEv
libaria2.so.0:_ZN5aria212MSEHandshake8verifyVCEPh
libaria2.so.0:_ZN5aria212MSEHandshakeC1ElRKSt10shared_ptrINS_10SocketCoreEEPKNS_6OptionE
libaria2.so.0:_ZN5aria212MSEHandshakeC2ElRKSt10shared_ptrINS_10SocketCoreEEPKNS_6OptionE
libaria2.so.0:_ZN5aria212MSEHandshakeD1Ev
libaria2.so.0:_ZN5aria212MSEHandshakeD2Ev
libaria2.so.0:_ZN5aria212MetadataInfoC1ERKSt10shared_ptrINS_7GroupIdEERKNSt7__cxx1112basic_stringIcSt11char_traitsIcESaIcEEE
libaria2.so.0:_ZN5aria212MetadataInfoC1Ev
libaria2.so.0:_ZN5aria212MetadataInfoC2ERKSt10shared_ptrINS_7GroupIdEERKNSt7__cxx1112basic_stringIcSt11char_traitsIcESaIcEEE
libaria2.so.0:_ZN5aria212MetadataInfoC2Ev
libaria2.so.0:_ZN5aria212MetadataInfoD1Ev
libaria2.so.0:_ZN5aria212MetadataInfoD2Ev
libaria2.so.0:_ZN5aria212NameResolver11setSocktypeEi
libaria2.so.0:_ZN5aria212NameResolver7resolveERSt6vectorINSt7__cxx1112basic_stringIcSt11char_traitsIcESaIcEEESaIS7_EERKS7_
libaria2.so.0:_ZN5aria212NameResolverC1Ev
libaria2.so.0:_ZN5aria212NameResolverC2Ev
libaria2.so.0:_ZN5aria212OptionParser11getInstanceEv
libaria2.so.0:_ZN5aria212OptionParser14deleteInstanceEv
libaria2.so.0:_ZN5aria212OptionParser16addOptionHandlerEPNS_13OptionHandlerE
libaria2.so.0:_ZN5aria212OptionParser17setOptionHandlersERKSt6vectorIPNS_13OptionHandlerESaIS3_EE
libaria2.so.0:_ZN5aria212OptionParserC1Ev
libaria2.so.0:_ZN5aria212OptionParserC2Ev
libaria2.so.0:_ZN5aria212OptionParserD1Ev
libaria2.so.0:_ZN5aria212OptionParserD2Ev
libaria2.so.0:_ZN5aria212PieceStatMan13addPieceStatsEPKhm
libaria2.so.0:_ZN5aria212PieceStatMan13addPieceStatsEm
libaria2.so.0:_ZN5aria212PieceStatMan16updatePieceStatsEPKhmS2_
libaria2.so.0:_ZN5aria212PieceStatMan18subtractPieceStatsEPKhm
libaria2.so.0:_ZN5aria212PieceStatManC1Emb
libaria2.so.0:_ZN5aria212PieceStatManC2Emb
libaria2.so.0:_ZN5aria212PieceStatManD1Ev
libaria2.so.0:_ZN5aria212PieceStatManD2Ev
libaria2.so.0:_ZN5aria212RequestGroup10setTimeoutENSt6chrono8durationIlSt5ratioILl1ELl1EEEE
libaria2.so.0:_ZN5aria212RequestGroup14adjustFilenameERKSt10shared_ptrINS_18BtProgressInfoFileEE
libaria2.so.0:_ZN5aria212RequestGroup14enableSeedOnlyEv
libaria2.so.0:_ZN5aria212RequestGroup14setURISelectorESt10unique_ptrINS_11URISelectorESt14default_deleteIS2_EE
libaria2.so.0:_ZN5aria212RequestGroup15loadAndOpenFileERKSt10shared_ptrINS_18BtProgressInfoFileEE
libaria2.so.0:_ZN5aria212RequestGroup15setPieceStorageERKSt10shared_ptrINS_12PieceStorageEE
libaria2.so.0:_ZN5aria212RequestGroup16dropPieceStorageEv
libaria2.so.0:_ZN5aria212RequestGroup16initPieceStorageEv
libaria2.so.0:_ZN5aria212RequestGroup16setHaltRequestedEbNS0_10HaltReasonE
libaria2.so.0:_ZN5aria212RequestGroup16setPendingOptionESt10shared_ptrINS_6OptionEE
libaria2.so.0:_ZN5aria212RequestGroup17createNextCommandERSt6vectorISt10unique_ptrINS_7CommandESt14default_deleteIS3_EESaIS6_EEPNS_14DownloadEngineE
libaria2.so.0:_ZN5aria212RequestGroup17createNextCommandERSt6vectorISt10unique_ptrINS_7CommandESt14default_deleteIS3_EESaIS6_EEPNS_14DownloadEngineEi
libaria2.so.0:_ZN5aria212RequestGroup17setPauseRequestedEb
libaria2.so.0:_ZN5aria212RequestGroup18decreaseNumCommandEv
libaria2.so.0:_ZN5aria212RequestGroup18increaseNumCommandEv
libaria2.so.0:_ZN5aria212RequestGroup18setDownloadContextERKSt10shared_ptrINS_15DownloadContextEE
libaria2.so.0:_ZN5aria212RequestGroup19setProgressInfoFileERKSt10shared_ptrINS_18BtProgressInfoFileEE
libaria2.so.0:_ZN5aria212RequestGroup19setRestartRequestedEb
libaria2.so.0:_ZN5aria212RequestGroup19tryAutoFileRenamingEv
libaria2.so.0:_ZN5aria212RequestGroup20createInitialCommandERSt6vectorISt10unique_ptrINS_7CommandESt14default_deleteIS3_EESaIS6_EEPNS_14DownloadEngineE
libaria2.so.0:_ZN5aria212RequestGroup20isDependencyResolvedEv
libaria2.so.0:_ZN5aria212RequestGroup20markInMemoryDownloadEv
libaria2.so.0:_ZN5aria212RequestGroup20setDiskWriterFactoryERKSt10shared_ptrINS_17DiskWriterFactoryEE
libaria2.so.0:_ZN5aria212RequestGroup21addPreDownloadHandlerEPKNS_18PreDownloadHandlerE
libaria2.so.0:_ZN5aria212RequestGroup21decreaseStreamCommandEv
libaria2.so.0:_ZN5aria212RequestGroup21doesUploadSpeedExceedEv
libaria2.so.0:_ZN5aria212RequestGroup21increaseStreamCommandEv
libaria2.so.0:_ZN5aria212RequestGroup21isCheckIntegrityReadyEv
libaria2.so.0:_ZN5aria212RequestGroup21preDownloadProcessingEv
libaria2.so.0:_ZN5aria212RequestGroup21setForceHaltRequestedEbNS0_10HaltReasonE
libaria2.so.0:_ZN5aria212RequestGroup22addPostDownloadHandlerEPKNS_19PostDownloadHandlerE
libaria2.so.0:_ZN5aria212RequestGroup22postDownloadProcessingERSt6vectorISt10shared_ptrIS0_ESaIS3_EE
libaria2.so.0:_ZN5aria212RequestGroup22releaseRuntimeResourceEPNS_14DownloadEngineE
libaria2.so.0:_ZN5aria212RequestGroup22reportDownloadFinishedEv
libaria2.so.0:_ZN5aria212RequestGroup22updateLastModifiedTimeERKNS_4TimeE
libaria2.so.0:_ZN5aria212RequestGroup23clearPreDownloadHandlerEv
libaria2.so.0:_ZN5aria212RequestGroup23doesDownloadSpeedExceedEv
libaria2.so.0:_ZN5aria212RequestGroup24clearPostDownloadHandlerEv
libaria2.so.0:_ZN5aria212RequestGroup24createNextCommandWithAdjERSt6vectorISt10unique_ptrINS_7CommandESt14default_deleteIS3_EESaIS6_EEPNS_14DownloadEngineEi
libaria2.so.0:_ZN5aria212RequestGroup24decreaseStreamConnectionEv
libaria2.so.0:_ZN5aria212RequestGroup24increaseStreamConnectionEv
libaria2.so.0:_ZN5aria212RequestGroup24removeDefunctControlFileERKSt10shared_ptrINS_18BtProgressInfoFileEE
libaria2.so.0:_ZN5aria212RequestGroup25createCheckIntegrityEntryEv
libaria2.so.0:_ZN5aria212RequestGroup26processCheckIntegrityEntryERSt6vectorISt10unique_ptrINS_7CommandESt14default_deleteIS3_EESaIS6_EES2_INS_19CheckIntegrityEntryES4_ISA_EEPNS_14DownloadEngineE
libaria2.so.0:_ZN5aria212RequestGroup28downloadFinishedByFileLengthEv
libaria2.so.0:_ZN5aria212RequestGroup28initializePreDownloadHandlerEv
libaria2.so.0:_ZN5aria212RequestGroup29initializePostDownloadHandlerEv
libaria2.so.0:_ZN5aria212RequestGroup29shouldCancelDownloadForSafetyEv
libaria2.so.0:_ZN5aria212RequestGroup33applyLastModifiedTimeToLocalFilesEv
libaria2.so.0:_ZN5aria212RequestGroup36increaseAndValidateFileNotFoundCountEv
libaria2.so.0:_ZN5aria212RequestGroup9closeFileEv
libaria2.so.0:_ZN5aria212RequestGroup9dependsOnERKSt10shared_ptrINS_10DependencyEE
libaria2.so.0:_ZN5aria212RequestGroupC1ERKSt10shared_ptrINS_7GroupIdEERKS1_INS_6OptionEE
libaria2.so.0:_ZN5aria212RequestGroupC2ERKSt10shared_ptrINS_7GroupIdEERKS1_INS_6OptionEE
libaria2.so.0:_ZN5aria212RequestGroupD1Ev
libaria2.so.0:_ZN5aria212RequestGroupD2Ev
libaria2.so.0:_ZN5aria212SegmentEntryC1ElRKSt10shared_ptrINS_7SegmentEE
libaria2.so.0:_ZN5aria212SegmentEntryC2ElRKSt10shared_ptrINS_7SegmentEE
libaria2.so.0:_ZN5aria212SegmentEntryD1Ev
libaria2.so.0:_ZN5aria212SegmentEntryD2Ev
libaria2.so.0:_ZN5aria212SocketBuffer14StringBufEntry4sendERKSt10shared_ptrINS_10SocketCoreEEm
libaria2.so.0:_ZN5aria212SocketBuffer14StringBufEntryC1ENSt7__cxx1112basic_stringIcSt11char_traitsIcESaIcEEESt10unique_ptrINS_14ProgressUpdateESt14default_deleteIS9_EE
libaria2.so.0:_ZN5aria212SocketBuffer14StringBufEntryC2ENSt7__cxx1112basic_stringIcSt11char_traitsIcESaIcEEESt10unique_ptrINS_14ProgressUpdateESt14default_deleteIS9_EE
libaria2.so.0:_ZN5aria212SocketBuffer17ByteArrayBufEntry4sendERKSt10shared_ptrINS_10SocketCoreEEm
libaria2.so.0:_ZN5aria212SocketBuffer17ByteArrayBufEntryC1ESt6vectorIhSaIhEESt10unique_ptrINS_14ProgressUpdateESt14default_deleteIS6_EE
libaria2.so.0:_ZN5aria212SocketBuffer17ByteArrayBufEntryC2ESt6vectorIhSaIhEESt10unique_ptrINS_14ProgressUpdateESt14default_deleteIS6_EE
libaria2.so.0:_ZN5aria212SocketBuffer17ByteArrayBufEntryD0Ev
libaria2.so.0:_ZN5aria212SocketBuffer17ByteArrayBufEntryD1Ev
libaria2.so.0:_ZN5aria212SocketBuffer17ByteArrayBufEntryD2Ev
libaria2.so.0:_ZN5aria212SocketBuffer4sendEv
libaria2.so.0:_ZN5aria212SocketBuffer7pushStrENSt7__cxx1112basic_stringIcSt11char_traitsIcESaIcEEESt10unique_ptrINS_14ProgressUpdateESt14default_deleteIS8_EE
libaria2.so.0:_ZN5aria212SocketBuffer9pushBytesESt6vectorIhSaIhEESt10unique_ptrINS_14ProgressUpdateESt14default_deleteIS5_EE
libaria2.so.0:_ZN5aria212SocketBufferC1ESt10shared_ptrINS_10SocketCoreEE
libaria2.so.0:_ZN5aria212SocketBufferC2ESt10shared_ptrINS_10SocketCoreEE
libaria2.so.0:_ZN5aria212SocketBufferD1Ev
libaria2.so.0:_ZN5aria212SocketBufferD2Ev
libaria2.so.0:_ZN5aria212StreamFilter15installDelegateESt10unique_ptrIS0_St14default_deleteIS0_EE
libaria2.so.0:_ZN5aria212StreamFilterC1ESt10unique_ptrIS0_St14default_deleteIS0_EE
libaria2.so.0:_ZN5aria212StreamFilterC2ESt10unique_ptrIS0_St14default_deleteIS0_EE
libaria2.so.0:_ZN5aria212StreamFilterD0Ev
libaria2.so.0:_ZN5aria212StreamFilterD1Ev
libaria2.so.0:_ZN5aria212StreamFilterD2Ev
libaria2.so.0:_ZN5aria212TransferStatmIERKS0_
libaria2.so.0:_ZN5aria212TransferStatpLERKS0_
libaria2.so.0:_ZN5aria212changeOptionEPNS_7SessionEmRKSt6vectorISt4pairINSt7__cxx1112basic_stringIcSt11char_traitsIcESaIcEEES9_ESaISA_EE
libaria2.so.0:_ZN5aria212changeOptionERKSt10shared_ptrINS_12RequestGroupEERKNS_6OptionEPNS_14DownloadEngineE
libaria2.so.0:_ZN5aria212sessionFinalEPNS_7SessionE
libaria2.so.0:_ZN5aria213ARC4Encryptor4initEPKhm
libaria2.so.0:_ZN5aria213ARC4Encryptor7encryptEmPhPKh
libaria2.so.0:_ZN5aria213ARC4EncryptorC1Ev
libaria2.so.0:_ZN5aria213ARC4EncryptorC2Ev
libaria2.so.0:_ZN5aria213ARC4EncryptorD1Ev
libaria2.so.0:_ZN5aria213ARC4EncryptorD2Ev
libaria2.so.0:_ZN5aria213Authenticator10setAccountENSt7__cxx1112basic_stringIcSt11char_traitsIcESaIcEEE
libaria2.so.0:_ZN5aria213Authenticator10setMachineENSt7__cxx1112basic_stringIcSt11char_traitsIcESaIcEEE
libaria2.so.0:_ZN5aria213Authenticator11setPasswordENSt7__cxx1112basic_stringIcSt11char_traitsIcESaIcEEE
libaria2.so.0:_ZN5aria213Authenticator8setLoginENSt7__cxx1112basic_stringIcSt11char_traitsIcESaIcEEE
libaria2.so.0:_ZN5aria213AuthenticatorC1ENSt7__cxx1112basic_stringIcSt11char_traitsIcESaIcEEES6_S6_S6_
libaria2.so.0:_ZN5aria213AuthenticatorC1Ev
libaria2.so.0:_ZN5aria213AuthenticatorC2ENSt7__cxx1112basic_stringIcSt11char_traitsIcESaIcEEES6_S6_S6_
libaria2.so.0:_ZN5aria213AuthenticatorC2Ev
libaria2.so.0:_ZN5aria213AuthenticatorD0Ev
libaria2.so.0:_ZN5aria213AuthenticatorD1Ev
libaria2.so.0:_ZN5aria213AuthenticatorD2Ev
libaria2.so.0:_ZN5aria213BtHaveMessage16doReceivedActionEv
libaria2.so.0:_ZN5aria213BtHaveMessage6createEPKhm
libaria2.so.0:_ZN5aria213BtHaveMessageC1Em
libaria2.so.0:_ZN5aria213BtHaveMessageC2Em
libaria2.so.0:_ZN5aria213BtPortMessage12setLocalNodeEPNS_7DHTNodeE
libaria2.so.0:_ZN5aria213BtPortMessage12setTaskQueueEPNS_12DHTTaskQueueE
libaria2.so.0:_ZN5aria213BtPortMessage13createMessageEv
libaria2.so.0:_ZN5aria213BtPortMessage14setTaskFactoryEPNS_14DHTTaskFactoryE
libaria2.so.0:_ZN5aria213BtPortMessage15setRoutingTableEPNS_15DHTRoutingTableE
libaria2.so.0:_ZN5aria213BtPortMessage16doReceivedActionEv
libaria2.so.0:_ZN5aria213BtPortMessage6createEPKhm
libaria2.so.0:_ZN5aria213BtPortMessageC1Et
libaria2.so.0:_ZN5aria213BtPortMessageC2Et
libaria2.so.0:_ZN5aria213ChunkChecksum11setHashTypeENSt7__cxx1112basic_stringIcSt11char_traitsIcESaIcEEE
libaria2.so.0:_ZN5aria213ChunkChecksum14setPieceHashesESt6vectorINSt7__cxx1112basic_stringIcSt11char_traitsIcESaIcEEESaIS7_EE
libaria2.so.0:_ZN5aria213ChunkChecksumC1ENSt7__cxx1112basic_stringIcSt11char_traitsIcESaIcEEESt6vectorIS6_SaIS6_EEi
libaria2.so.0:_ZN5aria213ChunkChecksumC1Ev
libaria2.so.0:_ZN5aria213ChunkChecksumC2ENSt7__cxx1112basic_stringIcSt11char_traitsIcESaIcEEESt6vectorIS6_SaIS6_EEi
libaria2.so.0:_ZN5aria213ChunkChecksumC2Ev
libaria2.so.0:_ZN5aria213CookieStorage12criteriaFindERKNSt7__cxx1112basic_stringIcSt11char_traitsIcESaIcEEES8_lb
libaria2.so.0:_ZN5aria213CookieStorage12saveNsFormatERKNSt7__cxx1112basic_stringIcSt11char_traitsIcESaIcEEE
libaria2.so.0:_ZN5aria213CookieStorage13parseAndStoreERKNSt7__cxx1112basic_stringIcSt11char_traitsIcESaIcEEES8_S8_l
libaria2.so.0:_ZN5aria213CookieStorage4loadERKNSt7__cxx1112basic_stringIcSt11char_traitsIcESaIcEEEl
libaria2.so.0:_ZN5aria213CookieStorage5storeESt10unique_ptrINS_6CookieESt14default_deleteIS2_EEl
libaria2.so.0:_ZN5aria213CookieStorage9evictNodeEm
libaria2.so.0:_ZN5aria213CookieStorage9updateLruEPNS_10DomainNodeEl
libaria2.so.0:_ZN5aria213CookieStorageC1Ev
libaria2.so.0:_ZN5aria213CookieStorageC2Ev
libaria2.so.0:_ZN5aria213DHKeyExchange17generatePublicKeyEv
libaria2.so.0:_ZN5aria213DHKeyExchange4initEPKhmS2_m
libaria2.so.0:_ZN5aria213DHKeyExchangeC1Ev
libaria2.so.0:_ZN5aria213DHKeyExchangeC2Ev
libaria2.so.0:_ZN5aria213DHKeyExchangeD1Ev
libaria2.so.0:_ZN5aria213DHKeyExchangeD2Ev
libaria2.so.0:_ZN5aria213FtpConnection15receiveResponseEv
libaria2.so.0:_ZN5aria213FtpConnection17setBaseWorkingDirERKNSt7__cxx1112basic_stringIcSt11char_traitsIcESaIcEEE
libaria2.so.0:_ZN5aria213FtpConnection18createServerSocketEv
libaria2.so.0:_ZN5aria213FtpConnection18receivePwdResponseERNSt7__cxx1112basic_stringIcSt11char_traitsIcESaIcEEE
libaria2.so.0:_ZN5aria213FtpConnection19bulkReceiveResponseERSt4pairIiNSt7__cxx1112basic_stringIcSt11char_traitsIcESaIcEEEE
libaria2.so.0:_ZN5aria213FtpConnection19receiveEpsvResponseERt
libaria2.so.0:_ZN5aria213FtpConnection19receiveMdtmResponseERNS_4TimeE
libaria2.so.0:_ZN5aria213FtpConnection19receivePasvResponseERSt4pairINSt7__cxx1112basic_stringIcSt11char_traitsIcESaIcEEEtE
libaria2.so.0:_ZN5aria213FtpConnection19receiveSizeResponseERl
libaria2.so.0:_ZN5aria213FtpConnection7sendCwdERKNSt7__cxx1112basic_stringIcSt11char_traitsIcESaIcEEE
libaria2.so.0:_ZN5aria213FtpConnection7sendPwdEv
libaria2.so.0:_ZN5aria213FtpConnection8sendEprtERKSt10shared_ptrINS_10SocketCoreEE
libaria2.so.0:_ZN5aria213FtpConnection8sendEpsvEv
libaria2.so.0:_ZN5aria213FtpConnection8sendMdtmEv
libaria2.so.0:_ZN5aria213FtpConnection8sendPassEv
libaria2.so.0:_ZN5aria213FtpConnection8sendPasvEv
libaria2.so.0:_ZN5aria213FtpConnection8sendPortERKSt10shared_ptrINS_10SocketCoreEE
libaria2.so.0:_ZN5aria213FtpConnection8sendRestERKSt10shared_ptrINS_7SegmentEE
libaria2.so.0:_ZN5aria213FtpConnection8sendRetrEv
libaria2.so.0:_ZN5aria213FtpConnection8sendSizeEv
libaria2.so.0:_ZN5aria213FtpConnection8sendTypeEv
libaria2.so.0:_ZN5aria213FtpConnection8sendUserEv
libaria2.so.0:_ZN5aria213FtpConnectionC1ElRKSt10shared_ptrINS_10SocketCoreEERKS1_INS_7RequestEERKS1_INS_10AuthConfigEEPKNS_6OptionE
libaria2.so.0:_ZN5aria213FtpConnectionC2ElRKSt10shared_ptrINS_10SocketCoreEERKS1_INS_7RequestEERKS1_INS_10AuthConfigEEPKNS_6OptionE
libaria2.so.0:_ZN5aria213FtpConnectionD1Ev
libaria2.so.0:_ZN5aria213FtpConnectionD2Ev
libaria2.so.0:_ZN5aria213MessageDigest10isStrongerERKNSt7__cxx1112basic_stringIcSt11char_traitsIcESaIcEEES8_
libaria2.so.0:_ZN5aria213MessageDigest11isValidHashERKNSt7__cxx1112basic_stringIcSt11char_traitsIcESaIcEEES8_
libaria2.so.0:_ZN5aria213MessageDigest15getDigestLengthERKNSt7__cxx1112basic_stringIcSt11char_traitsIcESaIcEEE
libaria2.so.0:_ZN5aria213MessageDigest20getCanonicalHashTypeERKNSt7__cxx1112basic_stringIcSt11char_traitsIcESaIcEEE
libaria2.so.0:_ZN5aria213MessageDigest21getSupportedHashTypesB5cxx11Ev
libaria2.so.0:_ZN5aria213MessageDigest26getSupportedHashTypeStringB5cxx11Ev
libaria2.so.0:_ZN5aria213MessageDigest4sha1Ev
libaria2.so.0:_ZN5aria213MessageDigest5resetEv
libaria2.so.0:_ZN5aria213MessageDigest6createERKNSt7__cxx1112basic_stringIcSt11char_traitsIcESaIcEEE
libaria2.so.0:_ZN5aria213MessageDigest6digestB5cxx11Ev
libaria2.so.0:_ZN5aria213MessageDigest6digestEPh
libaria2.so.0:_ZN5aria213MessageDigest6updateEPKvm
libaria2.so.0:_ZN5aria213MessageDigest8supportsERKNSt7__cxx1112basic_stringIcSt11char_traitsIcESaIcEEE
libaria2.so.0:_ZN5aria213MessageDigestC1ESt10unique_ptrINS_17MessageDigestImplESt14default_deleteIS2_EE
libaria2.so.0:_ZN5aria213MessageDigestC2ESt10unique_ptrINS_17MessageDigestImplESt14default_deleteIS2_EE
libaria2.so.0:_ZN5aria213MessageDigestD1Ev
libaria2.so.0:_ZN5aria213MessageDigestD2Ev
libaria2.so.0:_ZN5aria213MetalinkEntry11toFileEntryESt6vectorISt10unique_ptrIS0_St14default_deleteIS0_EESaIS5_EE
libaria2.so.0:_ZN5aria213MetalinkEntry12popSignatureEv
libaria2.so.0:_ZN5aria213MetalinkEntry12setSignatureESt10unique_ptrINS_9SignatureESt14default_deleteIS2_EE
libaria2.so.0:_ZN5aria213MetalinkEntry19setLocationPriorityERKSt6vectorINSt7__cxx1112basic_stringIcSt11char_traitsIcESaIcEEESaIS7_EEi
libaria2.so.0:_ZN5aria213MetalinkEntry19setProtocolPriorityERKNSt7__cxx1112basic_stringIcSt11char_traitsIcESaIcEEEi
libaria2.so.0:_ZN5aria213MetalinkEntry23dropUnsupportedResourceEv
libaria2.so.0:_ZN5aria213MetalinkEntry25reorderMetaurlsByPriorityEv
libaria2.so.0:_ZN5aria213MetalinkEntry26reorderResourcesByPriorityEv
libaria2.so.0:_ZN5aria213MetalinkEntry7popFileEv
libaria2.so.0:_ZN5aria213MetalinkEntryC1Ev
libaria2.so.0:_ZN5aria213MetalinkEntryC2Ev
libaria2.so.0:_ZN5aria213MetalinkEntryD1Ev
libaria2.so.0:_ZN5aria213MetalinkEntryD2Ev
libaria2.so.0:_ZN5aria213PeerAddrEntry12notifyUpdateEv
libaria2.so.0:_ZN5aria213PeerAddrEntryC1ERKNSt7__cxx1112basic_stringIcSt11char_traitsIcESaIcEEEtNS_5TimerE
libaria2.so.0:_ZN5aria213PeerAddrEntryC1ERKS0_
libaria2.so.0:_ZN5aria213PeerAddrEntryC2ERKNSt7__cxx1112basic_stringIcSt11char_traitsIcESaIcEEEtNS_5TimerE
libaria2.so.0:_ZN5aria213PeerAddrEntryC2ERKS0_
libaria2.so.0:_ZN5aria213PeerAddrEntryD1Ev
libaria2.so.0:_ZN5aria213PeerAddrEntryD2Ev
libaria2.so.0:_ZN5aria213PeerAddrEntryaSERKS0_
libaria2.so.0:_ZN5aria213PiecedSegment10updateHashElPKhm
libaria2.so.0:_ZN5aria213PiecedSegment19updateWrittenLengthEl
libaria2.so.0:_ZN5aria213PiecedSegment5clearEPNS_11WrDiskCacheE
libaria2.so.0:_ZN5aria213PiecedSegment9getDigestB5cxx11Ev
libaria2.so.0:_ZN5aria213PiecedSegmentC1EiRKSt10shared_ptrINS_5PieceEE
libaria2.so.0:_ZN5aria213PiecedSegmentC2EiRKSt10shared_ptrINS_5PieceEE
libaria2.so.0:_ZN5aria213PiecedSegmentD0Ev
libaria2.so.0:_ZN5aria213PiecedSegmentD1Ev
libaria2.so.0:_ZN5aria213PiecedSegmentD2Ev
libaria2.so.0:_ZN5aria213PollEventPoll12KSocketEntry9getEventsEv
libaria2.so.0:_ZN5aria213PollEventPoll12KSocketEntryC1Ei
libaria2.so.0:_ZN5aria213PollEventPoll12KSocketEntryC2Ei
libaria2.so.0:_ZN5aria213PollEventPoll12deleteEventsEiPNS_7CommandENS_9EventPoll9EventTypeE
libaria2.so.0:_ZN5aria213PollEventPoll12deleteEventsEiPNS_7CommandERKSt10shared_ptrINS_17AsyncNameResolverEE
libaria2.so.0:_ZN5aria213PollEventPoll12deleteEventsEiRKNS_5EventINS0_12KSocketEntryEEE
libaria2.so.0:_ZN5aria213PollEventPoll15addNameResolverERKSt10shared_ptrINS_17AsyncNameResolverEEPNS_7CommandE
libaria2.so.0:_ZN5aria213PollEventPoll15translateEventsENS_9EventPoll9EventTypeE
libaria2.so.0:_ZN5aria213PollEventPoll18deleteNameResolverERKSt10shared_ptrINS_17AsyncNameResolverEEPNS_7CommandE
libaria2.so.0:_ZN5aria213PollEventPoll4pollERK7timeval
libaria2.so.0:_ZN5aria213PollEventPoll9addEventsEiPNS_7CommandENS_9EventPoll9EventTypeE
libaria2.so.0:_ZN5aria213PollEventPoll9addEventsEiPNS_7CommandEiRKSt10shared_ptrINS_17AsyncNameResolverEE
libaria2.so.0:_ZN5aria213PollEventPoll9addEventsEiRKNS_5EventINS0_12KSocketEntryEEE
libaria2.so.0:_ZN5aria213PollEventPollC1Ev
libaria2.so.0:_ZN5aria213PollEventPollC2Ev
libaria2.so.0:_ZN5aria213PollEventPollD0Ev
libaria2.so.0:_ZN5aria213PollEventPollD1Ev
libaria2.so.0:_ZN5aria213PollEventPollD2Ev
libaria2.so.0:_ZN5aria213ServerStatMan21removeStaleServerStatERKNSt6chrono8durationIlSt5ratioILl1ELl1EEEE
libaria2.so.0:_ZN5aria213ServerStatMan3addERKSt10shared_ptrINS_10ServerStatEE
libaria2.so.0:_ZN5aria213ServerStatMan4loadERKNSt7__cxx1112basic_stringIcSt11char_traitsIcESaIcEEE
libaria2.so.0:_ZN5aria213ServerStatManC1Ev
libaria2.so.0:_ZN5aria213ServerStatManC2Ev
libaria2.so.0:_ZN5aria213ServerStatManD1Ev
libaria2.so.0:_ZN5aria213ServerStatManD2Ev
libaria2.so.0:_ZN5aria213SessionConfigC1Ev
libaria2.so.0:_ZN5aria213SessionConfigC2Ev
libaria2.so.0:_ZN5aria213UDPAnnRequest15processResponseERKSt10shared_ptrINS_10BtAnnounceEE
libaria2.so.0:_ZN5aria213UDPAnnRequest4stopEPNS_14DownloadEngineE
libaria2.so.0:_ZN5aria213UDPAnnRequest5issueEPNS_14DownloadEngineE
libaria2.so.0:_ZN5aria213UDPAnnRequestC1ERKSt10shared_ptrINS_17UDPTrackerRequestEE
libaria2.so.0:_ZN5aria213UDPAnnRequestC2ERKSt10shared_ptrINS_17UDPTrackerRequestEE
libaria2.so.0:_ZN5aria213UDPAnnRequestD0Ev
libaria2.so.0:_ZN5aria213UDPAnnRequestD1Ev
libaria2.so.0:_ZN5aria213UDPAnnRequestD2Ev
libaria2.so.0:_ZN5aria213UriListParser7hasNextEv
libaria2.so.0:_ZN5aria213UriListParser9parseNextERSt6vectorINSt7__cxx1112basic_stringIcSt11char_traitsIcESaIcEEESaIS7_EERNS_6OptionE
libaria2.so.0:_ZN5aria213UriListParserC1ERKNSt7__cxx1112basic_stringIcSt11char_traitsIcESaIcEEE
libaria2.so.0:_ZN5aria213UriListParserC2ERKNSt7__cxx1112basic_stringIcSt11char_traitsIcESaIcEEE
libaria2.so.0:_ZN5aria213UriListParserD1Ev
libaria2.so.0:_ZN5aria213UriListParserD2Ev
libaria2.so.0:_ZN5aria213ZeroBtMessage13createMessageEv
libaria2.so.0:_ZN5aria213ZeroBtMessageC1EhPKc
libaria2.so.0:_ZN5aria213ZeroBtMessageC2EhPKc
libaria2.so.0:_ZN5aria213getGlobalStatEPNS_7SessionE
libaria2.so.0:_ZN5aria213libraryDeinitEv
libaria2.so.0:_ZN5aria213pauseDownloadEPNS_7SessionEmb
libaria2.so.0:_ZN5aria213writeFilePathERSoRKSt10shared_ptrINS_9FileEntryEEb
libaria2.so.0:_ZN5aria214BtChokeMessage16doReceivedActionEv
libaria2.so.0:_ZN5aria214BtChokeMessage6createEPKhm
libaria2.so.0:_ZN5aria214BtChokeMessageC1Ev
libaria2.so.0:_ZN5aria214BtChokeMessageC2Ev
libaria2.so.0:_ZN5aria214BtPieceMessage10onNewPieceERKSt10shared_ptrINS_5PieceEE
libaria2.so.0:_ZN5aria214BtPieceMessage12onWrongPieceERKSt10shared_ptrINS_5PieceEE
libaria2.so.0:_ZN5aria214BtPieceMessage13setMsgPayloadEPKh
libaria2.so.0:_ZN5aria214BtPieceMessage14checkPieceHashERKSt10shared_ptrINS_5PieceEE
libaria2.so.0:_ZN5aria214BtPieceMessage14onChokingEventERKNS_14BtChokingEventE
libaria2.so.0:_ZN5aria214BtPieceMessage14setPeerStorageEPNS_11PeerStorageE
libaria2.so.0:_ZN5aria214BtPieceMessage16doReceivedActionEv
libaria2.so.0:_ZN5aria214BtPieceMessage18setDownloadContextEPNS_15DownloadContextE
libaria2.so.0:_ZN5aria214BtPieceMessage22getMessageHeaderLengthEv
libaria2.so.0:_ZN5aria214BtPieceMessage25onCancelSendingPieceEventERKNS_25BtCancelSendingPieceEventE
libaria2.so.0:_ZN5aria214BtPieceMessage4sendEv
libaria2.so.0:_ZN5aria214BtPieceMessage6createEPKhm
libaria2.so.0:_ZN5aria214BtPieceMessageC1Emii
libaria2.so.0:_ZN5aria214BtPieceMessageC2Emii
libaria2.so.0:_ZN5aria214BtPieceMessageD0Ev
libaria2.so.0:_ZN5aria214BtPieceMessageD1Ev
libaria2.so.0:_ZN5aria214BtPieceMessageD2Ev
libaria2.so.0:_ZN5aria214ConnectCommand15executeInternalEv
libaria2.so.0:_ZN5aria214ConnectCommand15setControlChainERKSt10shared_ptrINS_12ControlChainIPS0_EEE
libaria2.so.0:_ZN5aria214ConnectCommand20setBackupConnectInfoERKSt10shared_ptrINS_17BackupConnectInfoEE
libaria2.so.0:_ZN5aria214ConnectCommandC1ElRKSt10shared_ptrINS_7RequestEES5_RKS1_INS_9FileEntryEEPNS_12RequestGroupEPNS_14DownloadEngineERKS1_INS_10SocketCoreEE
libaria2.so.0:_ZN5aria214ConnectCommandC2ElRKSt10shared_ptrINS_7RequestEES5_RKS1_INS_9FileEntryEEPNS_12RequestGroupEPNS_14DownloadEngineERKS1_INS_10SocketCoreEE
libaria2.so.0:_ZN5aria214ConnectCommandD0Ev
libaria2.so.0:_ZN5aria214ConnectCommandD1Ev
libaria2.so.0:_ZN5aria214ConnectCommandD2Ev
libaria2.so.0:_ZN5aria214DHTPingMessage11getArgumentEv
libaria2.so.0:_ZN5aria214DHTPingMessage16doReceivedActionEv
libaria2.so.0:_ZN5aria214DHTPingMessageC1ERKSt10shared_ptrINS_7DHTNodeEES5_RKNSt7__cxx1112basic_stringIcSt11char_traitsIcESaIcEEE
libaria2.so.0:_ZN5aria214DHTPingMessageC2ERKSt10shared_ptrINS_7DHTNodeEES5_RKNSt7__cxx1112basic_stringIcSt11char_traitsIcESaIcEEE
libaria2.so.0:_ZN5aria214DownloadEngine10addCommandESt10unique_ptrINS_7CommandESt14default_deleteIS2_EE
libaria2.so.0:_ZN5aria214DownloadEngine10addCommandESt6vectorISt10unique_ptrINS_7CommandESt14default_deleteIS3_EESaIS6_EE
libaria2.so.0:_ZN5aria214DownloadEngine10onEndOfRunEv
libaria2.so.0:_ZN5aria214DownloadEngine10poolSocketERKNSt7__cxx1112basic_stringIcSt11char_traitsIcESaIcEEERKNS0_15SocketPoolEntryE
libaria2.so.0:_ZN5aria214DownloadEngine10poolSocketERKNSt7__cxx1112basic_stringIcSt11char_traitsIcESaIcEEEtS8_S8_tRKSt10shared_ptrINS_10SocketCoreEES8_NSt6chrono8durationIlSt5ratioILl1ELl1EEEE
libaria2.so.0:_ZN5aria214DownloadEngine10poolSocketERKNSt7__cxx1112basic_stringIcSt11char_traitsIcESaIcEEEtS8_tRKSt10shared_ptrINS_10SocketCoreEENSt6chrono8durationIlSt5ratioILl1ELl1EEEE
libaria2.so.0:_ZN5aria214DownloadEngine10poolSocketERKSt10shared_ptrINS_7RequestEERKNSt7__cxx1112basic_stringIcSt11char_traitsIcESaIcEEES5_RKS1_INS_10SocketCoreEESD_NSt6chrono8durationIlSt5ratioILl1ELl1EEEE
libaria2.so.0:_ZN5aria214DownloadEngine10poolSocketERKSt10shared_ptrINS_7RequestEES5_RKS1_INS_10SocketCoreEENSt6chrono8durationIlSt5ratioILl1ELl1EEEE
libaria2.so.0:_ZN5aria214DownloadEngine11requestHaltEv
libaria2.so.0:_ZN5aria214DownloadEngine11setStatCalcESt10unique_ptrINS_8StatCalcESt14default_deleteIS2_EE
libaria2.so.0:_ZN5aria214DownloadEngine13validateTokenERKNSt7__cxx1112basic_stringIcSt11char_traitsIcESaIcEEE
libaria2.so.0:_ZN5aria214DownloadEngine14cacheIPAddressERKNSt7__cxx1112basic_stringIcSt11char_traitsIcESaIcEEES8_t
libaria2.so.0:_ZN5aria214DownloadEngine15SocketPoolEntryC1ERKSt10shared_ptrINS_10SocketCoreEENSt6chrono8durationIlSt5ratioILl1ELl1EEEE
libaria2.so.0:_ZN5aria214DownloadEngine15SocketPoolEntryC1ERKSt10shared_ptrINS_10SocketCoreEERKNSt7__cxx1112basic_stringIcSt11char_traitsIcESaIcEEENSt6chrono8durationIlSt5ratioILl1ELl1EEEE
libaria2.so.0:_ZN5aria214DownloadEngine15SocketPoolEntryC2ERKSt10shared_ptrINS_10SocketCoreEENSt6chrono8durationIlSt5ratioILl1ELl1EEEE
libaria2.so.0:_ZN5aria214DownloadEngine15SocketPoolEntryC2ERKSt10shared_ptrINS_10SocketCoreEERKNSt7__cxx1112basic_stringIcSt11char_traitsIcESaIcEEENSt6chrono8durationIlSt5ratioILl1ELl1EEEE
libaria2.so.0:_ZN5aria214DownloadEngine15SocketPoolEntryD1Ev
libaria2.so.0:_ZN5aria214DownloadEngine15SocketPoolEntryD2Ev
libaria2.so.0:_ZN5aria214DownloadEngine15evictSocketPoolEv
libaria2.so.0:_ZN5aria214DownloadEngine15popPooledSocketERKNSt7__cxx1112basic_stringIcSt11char_traitsIcESaIcEEEtS8_t
libaria2.so.0:_ZN5aria214DownloadEngine15popPooledSocketERKSt6vectorINSt7__cxx1112basic_stringIcSt11char_traitsIcESaIcEEESaIS7_EEt
libaria2.so.0:_ZN5aria214DownloadEngine15popPooledSocketERNSt7__cxx1112basic_stringIcSt11char_traitsIcESaIcEEERKS6_tS9_S9_t
libaria2.so.0:_ZN5aria214DownloadEngine15popPooledSocketERNSt7__cxx1112basic_stringIcSt11char_traitsIcESaIcEEERKSt6vectorIS6_SaIS6_EEtRKS6_
libaria2.so.0:_ZN5aria214DownloadEngine16markBadIPAddressERKNSt7__cxx1112basic_stringIcSt11char_traitsIcESaIcEEES8_t
libaria2.so.0:_ZN5aria214DownloadEngine16requestForceHaltEv
libaria2.so.0:_ZN5aria214DownloadEngine17addRoutineCommandESt10unique_ptrINS_7CommandESt14default_deleteIS2_EE
libaria2.so.0:_ZN5aria214DownloadEngine18afterEachIterationEv
libaria2.so.0:_ZN5aria214DownloadEngine18setAsyncDNSServersEP14ares_addr_node
libaria2.so.0:_ZN5aria214DownloadEngine18setRefreshIntervalENSt6chrono8durationIlSt5ratioILl1ELl1000EEEE
libaria2.so.0:_ZN5aria214DownloadEngine18setRequestGroupManESt10unique_ptrINS_15RequestGroupManESt14default_deleteIS2_EE
libaria2.so.0:_ZN5aria214DownloadEngine19calculateStatisticsEv
libaria2.so.0:_ZN5aria214DownloadEngine19findSocketPoolEntryERKNSt7__cxx1112basic_stringIcSt11char_traitsIcESaIcEEE
libaria2.so.0:_ZN5aria214DownloadEngine20addNameResolverCheckERKSt10shared_ptrINS_17AsyncNameResolverEEPNS_7CommandE
libaria2.so.0:_ZN5aria214DownloadEngine20setAuthConfigFactoryESt10unique_ptrINS_17AuthConfigFactoryESt14default_deleteIS2_EE
libaria2.so.0:_ZN5aria214DownloadEngine20setCheckIntegrityManESt10unique_ptrINS_16SequentialPickerINS_19CheckIntegrityEntryEEESt14default_deleteIS4_EE
libaria2.so.0:_ZN5aria214DownloadEngine20setFileAllocationManESt10unique_ptrINS_16SequentialPickerINS_19FileAllocationEntryEEESt14default_deleteIS4_EE
libaria2.so.0:_ZN5aria214DownloadEngine21addSocketForReadCheckERKSt10shared_ptrINS_10SocketCoreEEPNS_7CommandE
libaria2.so.0:_ZN5aria214DownloadEngine21removeCachedIPAddressERKNSt7__cxx1112basic_stringIcSt11char_traitsIcESaIcEEEt
libaria2.so.0:_ZN5aria214DownloadEngine22addSocketForWriteCheckERKSt10shared_ptrINS_10SocketCoreEEPNS_7CommandE
libaria2.so.0:_ZN5aria214DownloadEngine22setWebSocketSessionManESt10unique_ptrINS_3rpc19WebSocketSessionManESt14default_deleteIS3_EE
libaria2.so.0:_ZN5aria214DownloadEngine23deleteNameResolverCheckERKSt10shared_ptrINS_17AsyncNameResolverEEPNS_7CommandE
libaria2.so.0:_ZN5aria214DownloadEngine24deleteSocketForReadCheckERKSt10shared_ptrINS_10SocketCoreEEPNS_7CommandE
libaria2.so.0:_ZN5aria214DownloadEngine25deleteSocketForWriteCheckERKSt10shared_ptrINS_10SocketCoreEEPNS_7CommandE
libaria2.so.0:_ZN5aria214DownloadEngine3runEb
libaria2.so.0:_ZN5aria214DownloadEngine7newCUIDEv
libaria2.so.0:_ZN5aria214DownloadEngine8waitDataEv
libaria2.so.0:_ZN5aria214DownloadEngine9setNoWaitEb
libaria2.so.0:_ZN5aria214DownloadEngineC1ESt10unique_ptrINS_9EventPollESt14default_deleteIS2_EE
libaria2.so.0:_ZN5aria214DownloadEngineC2ESt10unique_ptrINS_9EventPollESt14default_deleteIS2_EE
libaria2.so.0:_ZN5aria214DownloadEngineD1Ev
libaria2.so.0:_ZN5aria214DownloadEngineD2Ev
libaria2.so.0:_ZN5aria214DownloadResultC1Ev
libaria2.so.0:_ZN5aria214DownloadResultC2Ev
libaria2.so.0:_ZN5aria214DownloadResultD1Ev
libaria2.so.0:_ZN5aria214DownloadResultD2Ev
libaria2.so.0:_ZN5aria214EpollEventPoll12KSocketEntry9getEventsEv
libaria2.so.0:_ZN5aria214EpollEventPoll12KSocketEntryC1Ei
libaria2.so.0:_ZN5aria214EpollEventPoll12KSocketEntryC2Ei
libaria2.so.0:_ZN5aria214EpollEventPoll12deleteEventsEiPNS_7CommandENS_9EventPoll9EventTypeE
libaria2.so.0:_ZN5aria214EpollEventPoll12deleteEventsEiPNS_7CommandERKSt10shared_ptrINS_17AsyncNameResolverEE
libaria2.so.0:_ZN5aria214EpollEventPoll12deleteEventsEiRKNS_5EventINS0_12KSocketEntryEEE
libaria2.so.0:_ZN5aria214EpollEventPoll15addNameResolverERKSt10shared_ptrINS_17AsyncNameResolverEEPNS_7CommandE
libaria2.so.0:_ZN5aria214EpollEventPoll18deleteNameResolverERKSt10shared_ptrINS_17AsyncNameResolverEEPNS_7CommandE
libaria2.so.0:_ZN5aria214EpollEventPoll4pollERK7timeval
libaria2.so.0:_ZN5aria214EpollEventPoll9addEventsEiPNS_7CommandENS_9EventPoll9EventTypeE
libaria2.so.0:_ZN5aria214EpollEventPoll9addEventsEiPNS_7CommandEiRKSt10shared_ptrINS_17AsyncNameResolverEE
libaria2.so.0:_ZN5aria214EpollEventPoll9addEventsEiRKNS_5EventINS0_12KSocketEntryEEE
libaria2.so.0:_ZN5aria214EpollEventPollC1Ev
libaria2.so.0:_ZN5aria214EpollEventPollC2Ev
libaria2.so.0:_ZN5aria214EpollEventPollD0Ev
libaria2.so.0:_ZN5aria214EpollEventPollD1Ev
libaria2.so.0:_ZN5aria214EpollEventPollD2Ev
libaria2.so.0:_ZN5aria214FatalExceptionC1EPKciRKNSt7__cxx1112basic_stringIcSt11char_traitsIcESaIcEEE
libaria2.so.0:_ZN5aria214FatalExceptionC1EPKciRKNSt7__cxx1112basic_stringIcSt11char_traitsIcESaIcEEERKNS_9ExceptionE
libaria2.so.0:_ZN5aria214FatalExceptionC2EPKciRKNSt7__cxx1112basic_stringIcSt11char_traitsIcESaIcEEE
libaria2.so.0:_ZN5aria214FatalExceptionC2EPKciRKNSt7__cxx1112basic_stringIcSt11char_traitsIcESaIcEEERKNS_9ExceptionE
libaria2.so.0:_ZN5aria214HTTPAnnRequest15processResponseERKSt10shared_ptrINS_10BtAnnounceEE
libaria2.so.0:_ZN5aria214HTTPAnnRequest4stopEPNS_14DownloadEngineE
libaria2.so.0:_ZN5aria214HTTPAnnRequest5issueEPNS_14DownloadEngineE
libaria2.so.0:_ZN5aria214HTTPAnnRequestC1ESt10unique_ptrINS_12RequestGroupESt14default_deleteIS2_EE
libaria2.so.0:_ZN5aria214HTTPAnnRequestC2ESt10unique_ptrINS_12RequestGroupESt14default_deleteIS2_EE
libaria2.so.0:_ZN5aria214HTTPAnnRequestD0Ev
libaria2.so.0:_ZN5aria214HTTPAnnRequestD1Ev
libaria2.so.0:_ZN5aria214HTTPAnnRequestD2Ev
libaria2.so.0:_ZN5aria214HttpConnection11sendRequestESt10unique_ptrINS_11HttpRequestESt14default_deleteIS2_EE
libaria2.so.0:_ZN5aria214HttpConnection11sendRequestESt10unique_ptrINS_11HttpRequestESt14default_deleteIS2_EENSt7__cxx1112basic_stringIcSt11char_traitsIcESaIcEEE
libaria2.so.0:_ZN5aria214HttpConnection15receiveResponseEv
libaria2.so.0:_ZN5aria214HttpConnection15sendPendingDataEv
libaria2.so.0:_ZN5aria214HttpConnection16sendProxyRequestESt10unique_ptrINS_11HttpRequestESt14default_deleteIS2_EE
libaria2.so.0:_ZN5aria214HttpConnection21eraseConfidentialInfoERKNSt7__cxx1112basic_stringIcSt11char_traitsIcESaIcEEE
libaria2.so.0:_ZN5aria214HttpConnectionC1ElRKSt10shared_ptrINS_10SocketCoreEERKS1_INS_16SocketRecvBufferEE
libaria2.so.0:_ZN5aria214HttpConnectionC2ElRKSt10shared_ptrINS_10SocketCoreEERKS1_INS_16SocketRecvBufferEE
libaria2.so.0:_ZN5aria214HttpConnectionD1Ev
libaria2.so.0:_ZN5aria214HttpConnectionD2Ev
libaria2.so.0:_ZN5aria214IndexBtMessage13createMessageEv
libaria2.so.0:_ZN5aria214NsCookieParser5parseERKNSt7__cxx1112basic_stringIcSt11char_traitsIcESaIcEEEl
libaria2.so.0:_ZN5aria214NsCookieParserC1Ev
libaria2.so.0:_ZN5aria214NsCookieParserC2Ev
libaria2.so.0:_ZN5aria214NsCookieParserD1Ev
libaria2.so.0:_ZN5aria214NsCookieParserD2Ev
libaria2.so.0:_ZN5aria214PeerConnection12presetBufferEPKhm
libaria2.so.0:_ZN5aria214PeerConnection13reserveBufferEm
libaria2.so.0:_ZN5aria214PeerConnection14receiveMessageEPhRm
libaria2.so.0:_ZN5aria214PeerConnection15sendPendingDataEv
libaria2.so.0:_ZN5aria214PeerConnection16enableEncryptionESt10unique_ptrINS_13ARC4EncryptorESt14default_deleteIS2_EES5_
libaria2.so.0:_ZN5aria214PeerConnection16receiveHandshakeEPhRmb
libaria2.so.0:_ZN5aria214PeerConnection8readDataEPhRmb
libaria2.so.0:_ZN5aria214PeerConnection9pushBytesESt6vectorIhSaIhEESt10unique_ptrINS_14ProgressUpdateESt14default_deleteIS5_EE
libaria2.so.0:_ZN5aria214PeerConnectionC1ElRKSt10shared_ptrINS_4PeerEERKS1_INS_10SocketCoreEE
libaria2.so.0:_ZN5aria214PeerConnectionC2ElRKSt10shared_ptrINS_4PeerEERKS1_INS_10SocketCoreEE
libaria2.so.0:_ZN5aria214PeerConnectionD1Ev
libaria2.so.0:_ZN5aria214PeerConnectionD2Ev
libaria2.so.0:_ZN5aria214RangeBtMessage13createMessageEv
libaria2.so.0:_ZN5aria214RangeBtMessageC1EhPKcmii
libaria2.so.0:_ZN5aria214RangeBtMessageC2EhPKcmii
libaria2.so.0:_ZN5aria214changePositionEPNS_7SessionEmiNS_10OffsetModeE
libaria2.so.0:_ZN5aria214featureSummaryB5cxx11Ev
libaria2.so.0:_ZN5aria214getDefaultPortERKNSt7__cxx1112basic_stringIcSt11char_traitsIcESaIcEEE
libaria2.so.0:_ZN5aria214keyBtExtensionEPKc
libaria2.so.0:_ZN5aria214message_digest6digestB5cxx11EPNS_13MessageDigestERKSt10shared_ptrINS_12BinaryStreamEEll
libaria2.so.0:_ZN5aria214message_digest6digestEPhmPNS_13MessageDigestEPKvm
libaria2.so.0:_ZN5aria214paramed_string8toBase26B5cxx11Eicm
libaria2.so.0:_ZN5aria214removeDownloadEPNS_7SessionEmb
libaria2.so.0:_ZN5aria214strBtExtensionEi
libaria2.so.0:_ZN5aria215AbstractCommand10setRequestERKSt10shared_ptrINS_7RequestEE
libaria2.so.0:_ZN5aria215AbstractCommand10swapSocketERSt10shared_ptrINS_10SocketCoreEE
libaria2.so.0:_ZN5aria215AbstractCommand11tryReservedEv
libaria2.so.0:_ZN5aria215AbstractCommand12createSocketEv
libaria2.so.0:_ZN5aria215AbstractCommand12resetRequestEv
libaria2.so.0:_ZN5aria215AbstractCommand12setFileEntryERKSt10shared_ptrINS_9FileEntryEE
libaria2.so.0:_ZN5aria215AbstractCommand14addCommandSelfEv
libaria2.so.0:_ZN5aria215AbstractCommand15prepareForRetryEl
libaria2.so.0:_ZN5aria215AbstractCommand15resolveHostnameERSt6vectorINSt7__cxx1112basic_stringIcSt11char_traitsIcESaIcEEESaIS7_EERKS7_t
libaria2.so.0:_ZN5aria215AbstractCommand16useFasterRequestERKSt10shared_ptrINS_7RequestEE
libaria2.so.0:_ZN5aria215AbstractCommand18setReadCheckSocketERKSt10shared_ptrINS_10SocketCoreEE
libaria2.so.0:_ZN5aria215AbstractCommand19setWriteCheckSocketERKSt10shared_ptrINS_10SocketCoreEE
libaria2.so.0:_ZN5aria215AbstractCommand20prepareForNextActionESt10unique_ptrINS_19CheckIntegrityEntryESt14default_deleteIS2_EE
libaria2.so.0:_ZN5aria215AbstractCommand20setReadCheckSocketIfERKSt10shared_ptrINS_10SocketCoreEEb
libaria2.so.0:_ZN5aria215AbstractCommand21checkSocketRecvBufferEv
libaria2.so.0:_ZN5aria215AbstractCommand21setWriteCheckSocketIfERKSt10shared_ptrINS_10SocketCoreEEb
libaria2.so.0:_ZN5aria215AbstractCommand22disableReadCheckSocketEv
libaria2.so.0:_ZN5aria215AbstractCommand23disableWriteCheckSocketEv
libaria2.so.0:_ZN5aria215AbstractCommand28checkIfConnectionEstablishedERKSt10shared_ptrINS_10SocketCoreEERKNSt7__cxx1112basic_stringIcSt11char_traitsIcESaIcEEESD_t
libaria2.so.0:_ZN5aria215AbstractCommand7executeEv
libaria2.so.0:_ZN5aria215AbstractCommand7onAbortEv
libaria2.so.0:_ZN5aria215AbstractCommand9setSocketERKSt10shared_ptrINS_10SocketCoreEE
libaria2.so.0:_ZN5aria215AbstractCommandC1ElRKSt10shared_ptrINS_7RequestEERKS1_INS_9FileEntryEEPNS_12RequestGroupEPNS_14DownloadEngineERKS1_INS_10SocketCoreEERKS1_INS_16SocketRecvBufferEEb
libaria2.so.0:_ZN5aria215AbstractCommandC2ElRKSt10shared_ptrINS_7RequestEERKS1_INS_9FileEntryEEPNS_12RequestGroupEPNS_14DownloadEngineERKS1_INS_10SocketCoreEERKS1_INS_16SocketRecvBufferEEb
libaria2.so.0:_ZN5aria215AbstractCommandD0Ev
libaria2.so.0:_ZN5aria215AbstractCommandD1Ev
libaria2.so.0:_ZN5aria215AbstractCommandD2Ev
libaria2.so.0:_ZN5aria215AutoSaveCommand10preProcessEv
libaria2.so.0:_ZN5aria215AutoSaveCommand7processEv
libaria2.so.0:_ZN5aria215AutoSaveCommandC1ElPNS_14DownloadEngineENSt6chrono8durationIlSt5ratioILl1ELl1EEEE
libaria2.so.0:_ZN5aria215AutoSaveCommandC2ElPNS_14DownloadEngineENSt6chrono8durationIlSt5ratioILl1ELl1EEEE
libaria2.so.0:_ZN5aria215AutoSaveCommandD0Ev
libaria2.so.0:_ZN5aria215AutoSaveCommandD1Ev
libaria2.so.0:_ZN5aria215AutoSaveCommandD2Ev
libaria2.so.0:_ZN5aria215BtCancelMessage16doReceivedActionEv
libaria2.so.0:_ZN5aria215BtCancelMessage6createEPKhm
libaria2.so.0:_ZN5aria215BtCancelMessageC1Emii
libaria2.so.0:_ZN5aria215BtCancelMessageC2Emii
libaria2.so.0:_ZN5aria215BtRejectMessage16doReceivedActionEv
libaria2.so.0:_ZN5aria215BtRejectMessage6createEPKhm
libaria2.so.0:_ZN5aria215BtRejectMessageC1Emii
libaria2.so.0:_ZN5aria215BtRejectMessageC2Emii
libaria2.so.0:_ZN5aria215ConsoleStatCalc13calculateStatEPKNS_14DownloadEngineE
libaria2.so.0:_ZN5aria215ConsoleStatCalcC1ENSt6chrono8durationIlSt5ratioILl1ELl1EEEEbb
libaria2.so.0:_ZN5aria215ConsoleStatCalcC2ENSt6chrono8durationIlSt5ratioILl1ELl1EEEEbb
libaria2.so.0:_ZN5aria215DHTAbstractTask12setLocalNodeERKSt10shared_ptrINS_7DHTNodeEE
libaria2.so.0:_ZN5aria215DHTAbstractTask12setTaskQueueEPNS_12DHTTaskQueueE
libaria2.so.0:_ZN5aria215DHTAbstractTask15setRoutingTableEPNS_15DHTRoutingTableE
libaria2.so.0:_ZN5aria215DHTAbstractTask17setMessageFactoryEPNS_17DHTMessageFactoryE
libaria2.so.0:_ZN5aria215DHTAbstractTask20setMessageDispatcherEPNS_20DHTMessageDispatcherE
libaria2.so.0:_ZN5aria215DHTAbstractTask8finishedEv
libaria2.so.0:_ZN5aria215DHTAbstractTaskC1Ev
libaria2.so.0:_ZN5aria215DHTAbstractTaskC2Ev
libaria2.so.0:_ZN5aria215DHTMessageEntryC1ESt10unique_ptrINS_10DHTMessageESt14default_deleteIS2_EENSt6chrono8durationIlSt5ratioILl1ELl1EEEES1_INS_18DHTMessageCallbackES3_ISB_EE
libaria2.so.0:_ZN5aria215DHTMessageEntryC2ESt10unique_ptrINS_10DHTMessageESt14default_deleteIS2_EENSt6chrono8durationIlSt5ratioILl1ELl1EEEES1_INS_18DHTMessageCallbackES3_ISB_EE
libaria2.so.0:_ZN5aria215DHTQueryMessage11fillMessageEPNS_4DictE
libaria2.so.0:_ZN5aria215DHTQueryMessageC1ERKSt10shared_ptrINS_7DHTNodeEES5_RKNSt7__cxx1112basic_stringIcSt11char_traitsIcESaIcEEE
libaria2.so.0:_ZN5aria215DHTQueryMessageC2ERKSt10shared_ptrINS_7DHTNodeEES5_RKNSt7__cxx1112basic_stringIcSt11char_traitsIcESaIcEEE
libaria2.so.0:_ZN5aria215DHTQueryMessageD0Ev
libaria2.so.0:_ZN5aria215DHTQueryMessageD1Ev
libaria2.so.0:_ZN5aria215DHTQueryMessageD2Ev
libaria2.so.0:_ZN5aria215DHTRoutingTable11addGoodNodeERKSt10shared_ptrINS_7DHTNodeEE
libaria2.so.0:_ZN5aria215DHTRoutingTable12setTaskQueueEPNS_12DHTTaskQueueE
libaria2.so.0:_ZN5aria215DHTRoutingTable14moveBucketTailERKSt10shared_ptrINS_7DHTNodeEE
libaria2.so.0:_ZN5aria215DHTRoutingTable14setTaskFactoryEPNS_14DHTTaskFactoryE
libaria2.so.0:_ZN5aria215DHTRoutingTable7addNodeERKSt10shared_ptrINS_7DHTNodeEE
libaria2.so.0:_ZN5aria215DHTRoutingTable7addNodeERKSt10shared_ptrINS_7DHTNodeEEb
libaria2.so.0:_ZN5aria215DHTRoutingTable8dropNodeERKSt10shared_ptrINS_7DHTNodeEE
libaria2.so.0:_ZN5aria215DHTRoutingTableC1ERKSt10shared_ptrINS_7DHTNodeEE
libaria2.so.0:_ZN5aria215DHTRoutingTableC2ERKSt10shared_ptrINS_7DHTNodeEE
libaria2.so.0:_ZN5aria215DHTRoutingTableD1Ev
libaria2.so.0:_ZN5aria215DHTRoutingTableD2Ev
libaria2.so.0:_ZN5aria215DHTTaskExecutor6updateEv
libaria2.so.0:_ZN5aria215DHTTaskExecutorC1Ei
libaria2.so.0:_ZN5aria215DHTTaskExecutorC2Ei
libaria2.so.0:_ZN5aria215DHTTaskExecutorD1Ev
libaria2.so.0:_ZN5aria215DHTTaskExecutorD2Ev
libaria2.so.0:_ZN5aria215DHTTokenTracker17updateTokenSecretEv
libaria2.so.0:_ZN5aria215DHTTokenTrackerC1EPKh
libaria2.so.0:_ZN5aria215DHTTokenTrackerC1Ev
libaria2.so.0:_ZN5aria215DHTTokenTrackerC2EPKh
libaria2.so.0:_ZN5aria215DHTTokenTrackerC2Ev
libaria2.so.0:_ZN5aria215DHTTokenTrackerD1Ev
libaria2.so.0:_ZN5aria215DHTTokenTrackerD2Ev
libaria2.so.0:_ZN5aria215DiskWriterEntry10fileExistsEv
libaria2.so.0:_ZN5aria215DiskWriterEntry13setDiskWriterESt10unique_ptrINS_10DiskWriterESt14default_deleteIS2_EE
libaria2.so.0:_ZN5aria215DiskWriterEntry15initAndOpenFileEv
libaria2.so.0:_ZN5aria215DiskWriterEntry16openExistingFileEv
libaria2.so.0:_ZN5aria215DiskWriterEntry8openFileEv
libaria2.so.0:_ZN5aria215DiskWriterEntry9closeFileEv
libaria2.so.0:_ZN5aria215DiskWriterEntryC1ERKSt10shared_ptrINS_9FileEntryEE
libaria2.so.0:_ZN5aria215DiskWriterEntryC2ERKSt10shared_ptrINS_9FileEntryEE
libaria2.so.0:_ZN5aria215DownloadCommand15completeSegmentElRKSt10shared_ptrINS_7SegmentEE
libaria2.so.0:_ZN5aria215DownloadCommand15executeInternalEv
libaria2.so.0:_ZN5aria215DownloadCommand17validatePieceHashERKSt10shared_ptrINS_7SegmentEERKNSt7__cxx1112basic_stringIcSt11char_traitsIcESaIcEEESD_
libaria2.so.0:_ZN5aria215DownloadCommand19installStreamFilterESt10unique_ptrINS_12StreamFilterESt14default_deleteIS2_EE
libaria2.so.0:_ZN5aria215DownloadCommand21prepareForNextSegmentEv
libaria2.so.0:_ZN5aria215DownloadCommand22shouldEnableWriteCheckEv
libaria2.so.0:_ZN5aria215DownloadCommandC1ElRKSt10shared_ptrINS_7RequestEERKS1_INS_9FileEntryEEPNS_12RequestGroupEPNS_14DownloadEngineERKS1_INS_10SocketCoreEERKS1_INS_16SocketRecvBufferEE
libaria2.so.0:_ZN5aria215DownloadCommandC2ElRKSt10shared_ptrINS_7RequestEERKS1_INS_9FileEntryEEPNS_12RequestGroupEPNS_14DownloadEngineERKS1_INS_10SocketCoreEERKS1_INS_16SocketRecvBufferEE
libaria2.so.0:_ZN5aria215DownloadCommandD0Ev
libaria2.so.0:_ZN5aria215DownloadCommandD1Ev
libaria2.so.0:_ZN5aria215DownloadCommandD2Ev
libaria2.so.0:_ZN5aria215DownloadContext11setBasePathERKNSt7__cxx1112basic_stringIcSt11char_traitsIcESaIcEEE
libaria2.so.0:_ZN5aria215DownloadContext12getAttributeENS_20ContextAttributeTypeE
libaria2.so.0:_ZN5aria215DownloadContext12setAttributeENS_20ContextAttributeTypeESt10shared_ptrINS_16ContextAttributeEE
libaria2.so.0:_ZN5aria215DownloadContext12setSignatureESt10unique_ptrINS_9SignatureESt14default_deleteIS2_EE
libaria2.so.0:_ZN5aria215DownloadContext13setFileFilterENS_7SegListIiEE
libaria2.so.0:_ZN5aria215DownloadContext14updateDownloadEm
libaria2.so.0:_ZN5aria215DownloadContext17updateUploadSpeedEm
libaria2.so.0:_ZN5aria215DownloadContext18updateUploadLengthEm
libaria2.so.0:_ZN5aria215DownloadContext20setFilePathWithIndexEmRKNSt7__cxx1112basic_stringIcSt11char_traitsIcESaIcEEE
libaria2.so.0:_ZN5aria215DownloadContext21resetDownloadStopTimeEv
libaria2.so.0:_ZN5aria215DownloadContext22releaseRuntimeResourceEv
libaria2.so.0:_ZN5aria215DownloadContext22resetDownloadStartTimeEv
libaria2.so.0:_ZN5aria215DownloadContext9setDigestERKNSt7__cxx1112basic_stringIcSt11char_traitsIcESaIcEEES8_
libaria2.so.0:_ZN5aria215DownloadContextC1EilNSt7__cxx1112basic_stringIcSt11char_traitsIcESaIcEEE
libaria2.so.0:_ZN5aria215DownloadContextC1Ev
libaria2.so.0:_ZN5aria215DownloadContextC2EilNSt7__cxx1112basic_stringIcSt11char_traitsIcESaIcEEE
libaria2.so.0:_ZN5aria215DownloadContextC2Ev
libaria2.so.0:_ZN5aria215DownloadContextD1Ev
libaria2.so.0:_ZN5aria215DownloadContextD2Ev
libaria2.so.0:_ZN5aria215DownloadHandler11setCriteriaESt10unique_ptrINS_20RequestGroupCriteriaESt14default_deleteIS2_EE
libaria2.so.0:_ZN5aria215MetalinkMetaurlC1ERKNSt7__cxx1112basic_stringIcSt11char_traitsIcESaIcEEES8_S8_i
libaria2.so.0:_ZN5aria215MetalinkMetaurlC1Ev
libaria2.so.0:_ZN5aria215MetalinkMetaurlC2ERKNSt7__cxx1112basic_stringIcSt11char_traitsIcESaIcEEES8_S8_i
libaria2.so.0:_ZN5aria215MetalinkMetaurlC2Ev
libaria2.so.0:_ZN5aria215MetalinkMetaurlD1Ev
libaria2.so.0:_ZN5aria215MetalinkMetaurlD2Ev
libaria2.so.0:_ZN5aria215RealtimeCommand7executeEv
libaria2.so.0:_ZN5aria215RealtimeCommandC1ElPNS_12RequestGroupEPNS_14DownloadEngineE
libaria2.so.0:_ZN5aria215RealtimeCommandC2ElPNS_12RequestGroupEPNS_14DownloadEngineE
libaria2.so.0:_ZN5aria215RealtimeCommandD0Ev
libaria2.so.0:_ZN5aria215RealtimeCommandD1Ev
libaria2.so.0:_ZN5aria215RealtimeCommandD2Ev
libaria2.so.0:_ZN5aria215RequestGroupMan12getUsedHostsERSt6vectorISt4pairImNSt7__cxx1112basic_stringIcSt11char_traitsIcESaIcEEEESaIS9_EE
libaria2.so.0:_ZN5aria215RequestGroupMan13addServerStatERKSt10shared_ptrINS_10ServerStatEE
libaria2.so.0:_ZN5aria215RequestGroupMan13calculateStatEv
libaria2.so.0:_ZN5aria215RequestGroupMan14loadServerStatERKNSt7__cxx1112basic_stringIcSt11char_traitsIcESaIcEEE
libaria2.so.0:_ZN5aria215RequestGroupMan15addRequestGroupERKSt10shared_ptrINS_12RequestGroupEE
libaria2.so.0:_ZN5aria215RequestGroupMan15initWrDiskCacheEv
libaria2.so.0:_ZN5aria215RequestGroupMan16addReservedGroupERKSt10shared_ptrINS_12RequestGroupEE
libaria2.so.0:_ZN5aria215RequestGroupMan16addReservedGroupERKSt6vectorISt10shared_ptrINS_12RequestGroupEESaIS4_EE
libaria2.so.0:_ZN5aria215RequestGroupMan16downloadFinishedEv
libaria2.so.0:_ZN5aria215RequestGroupMan16setUriListParserERKSt10shared_ptrINS_13UriListParserEE
libaria2.so.0:_ZN5aria215RequestGroupMan17addDownloadResultERKSt10shared_ptrINS_14DownloadResultEE
libaria2.so.0:_ZN5aria215RequestGroupMan17decreaseNumActiveEv
libaria2.so.0:_ZN5aria215RequestGroupMan18removeStoppedGroupEPNS_14DownloadEngineE
libaria2.so.0:_ZN5aria215RequestGroupMan19insertReservedGroupEmRKSt10shared_ptrINS_12RequestGroupEE
libaria2.so.0:_ZN5aria215RequestGroupMan19insertReservedGroupEmRKSt6vectorISt10shared_ptrINS_12RequestGroupEESaIS4_EE
libaria2.so.0:_ZN5aria215RequestGroupMan19purgeDownloadResultEv
libaria2.so.0:_ZN5aria215RequestGroupMan19removeReservedGroupEm
libaria2.so.0:_ZN5aria215RequestGroupMan20removeDownloadResultEm
libaria2.so.0:_ZN5aria215RequestGroupMan21getOrCreateServerStatERKNSt7__cxx1112basic_stringIcSt11char_traitsIcESaIcEEES8_
libaria2.so.0:_ZN5aria215RequestGroupMan21removeStaleServerStatERKNSt6chrono8durationIlSt5ratioILl1ELl1EEEE
libaria2.so.0:_ZN5aria215RequestGroupMan27changeReservedGroupPositionEmiNS_10OffsetModeE
libaria2.so.0:_ZN5aria215RequestGroupMan27optimizeConcurrentDownloadsEv
libaria2.so.0:_ZN5aria215RequestGroupMan28doesOverallUploadSpeedExceedEv
libaria2.so.0:_ZN5aria215RequestGroupMan28fillRequestGroupFromReserverEPNS_14DownloadEngineE
libaria2.so.0:_ZN5aria215RequestGroupMan30doesOverallDownloadSpeedExceedEv
libaria2.so.0:_ZN5aria215RequestGroupMan32setupOptimizeConcurrentDownloadsEv
libaria2.so.0:_ZN5aria215RequestGroupMan4haltEv
libaria2.so.0:_ZN5aria215RequestGroupMan4saveEv
libaria2.so.0:_ZN5aria215RequestGroupMan9closeFileEv
libaria2.so.0:_ZN5aria215RequestGroupMan9forceHaltEv
libaria2.so.0:_ZN5aria215RequestGroupManC1ESt6vectorISt10shared_ptrINS_12RequestGroupEESaIS4_EEiPKNS_6OptionE
libaria2.so.0:_ZN5aria215RequestGroupManC2ESt6vectorISt10shared_ptrINS_12RequestGroupEESaIS4_EEiPKNS_6OptionE
libaria2.so.0:_ZN5aria215RequestGroupManD1Ev
libaria2.so.0:_ZN5aria215RequestGroupManD2Ev
libaria2.so.0:_ZN5aria215SelectEventPoll11SocketEntry13processEventsEi
libaria2.so.0:_ZN5aria215SelectEventPoll11SocketEntry15addCommandEventEPNS_7CommandEi
libaria2.so.0:_ZN5aria215SelectEventPoll11SocketEntry18removeCommandEventEPNS_7CommandEi
libaria2.so.0:_ZN5aria215SelectEventPoll11SocketEntry9getEventsEv
libaria2.so.0:_ZN5aria215SelectEventPoll11SocketEntryC1Ei
libaria2.so.0:_ZN5aria215SelectEventPoll11SocketEntryC2Ei
libaria2.so.0:_ZN5aria215SelectEventPoll11updateFdSetEv
libaria2.so.0:_ZN5aria215SelectEventPoll12CommandEvent13processEventsEi
libaria2.so.0:_ZN5aria215SelectEventPoll12CommandEventC1EPNS_7CommandEi
libaria2.so.0:_ZN5aria215SelectEventPoll12CommandEventC2EPNS_7CommandEi
libaria2.so.0:_ZN5aria215SelectEventPoll12deleteEventsEiPNS_7CommandENS_9EventPoll9EventTypeE
libaria2.so.0:_ZN5aria215SelectEventPoll15addNameResolverERKSt10shared_ptrINS_17AsyncNameResolverEEPNS_7CommandE
libaria2.so.0:_ZN5aria215SelectEventPoll18deleteNameResolverERKSt10shared_ptrINS_17AsyncNameResolverEEPNS_7CommandE
libaria2.so.0:_ZN5aria215SelectEventPoll22AsyncNameResolverEntry6getFdsEP6fd_setS3_
libaria2.so.0:_ZN5aria215SelectEventPoll22AsyncNameResolverEntry7processEP6fd_setS3_
libaria2.so.0:_ZN5aria215SelectEventPoll22AsyncNameResolverEntryC1ERKSt10shared_ptrINS_17AsyncNameResolverEEPNS_7CommandE
libaria2.so.0:_ZN5aria215SelectEventPoll22AsyncNameResolverEntryC2ERKSt10shared_ptrINS_17AsyncNameResolverEEPNS_7CommandE
libaria2.so.0:_ZN5aria215SelectEventPoll4pollERK7timeval
libaria2.so.0:_ZN5aria215SelectEventPoll9addEventsEiPNS_7CommandENS_9EventPoll9EventTypeE
libaria2.so.0:_ZN5aria215SelectEventPollC1Ev
libaria2.so.0:_ZN5aria215SelectEventPollC2Ev
libaria2.so.0:_ZN5aria215SelectEventPollD0Ev
libaria2.so.0:_ZN5aria215SelectEventPollD1Ev
libaria2.so.0:_ZN5aria215SelectEventPollD2Ev
libaria2.so.0:_ZN5aria215SimpleBtMessage17getProgressUpdateEv
libaria2.so.0:_ZN5aria215SimpleBtMessage4sendEv
libaria2.so.0:_ZN5aria215SimpleBtMessageC1EhPKc
libaria2.so.0:_ZN5aria215SimpleBtMessageC2EhPKc
libaria2.so.0:_ZN5aria215UDPTrackerReplyC1Ev
libaria2.so.0:_ZN5aria215UDPTrackerReplyC2Ev
libaria2.so.0:_ZN5aria215accumulateEventEiRKNS_15SelectEventPoll12CommandEventE
libaria2.so.0:_ZN5aria215accumulateEventEiRKNS_5EventINS_13PollEventPoll12KSocketEntryEEE
libaria2.so.0:_ZN5aria215accumulateEventEiRKNS_5EventINS_14EpollEventPoll12KSocketEntryEEE
libaria2.so.0:_ZN5aria215callGetaddrinfoEPP8addrinfoPKcS4_iiii
libaria2.so.0:_ZN5aria215getBtExtensionsEv
libaria2.so.0:_ZN5aria215getGlobalOptionEPNS_7SessionERKNSt7__cxx1112basic_stringIcSt11char_traitsIcESaIcEEE
libaria2.so.0:_ZN5aria215unpauseDownloadEPNS_7SessionEm
libaria2.so.0:_ZN5aria216BtHaveAllMessage16doReceivedActionEv
libaria2.so.0:_ZN5aria216BtHaveAllMessage6createEPKhm
libaria2.so.0:_ZN5aria216BtHaveAllMessageC1Ev
libaria2.so.0:_ZN5aria216BtHaveAllMessageC2Ev
libaria2.so.0:_ZN5aria216BtRequestMessage16doReceivedActionEv
libaria2.so.0:_ZN5aria216BtRequestMessage30onAbortOutstandingRequestEventERKNS_30BtAbortOutstandingRequestEventE
libaria2.so.0:_ZN5aria216BtRequestMessage6createEPKhm
libaria2.so.0:_ZN5aria216BtRequestMessage8onQueuedEv
libaria2.so.0:_ZN5aria216BtRequestMessageC1Emiim
libaria2.so.0:_ZN5aria216BtRequestMessageC2Emiim
libaria2.so.0:_ZN5aria216BtUnchokeMessage16doReceivedActionEv
libaria2.so.0:_ZN5aria216BtUnchokeMessage6createEPKhm
libaria2.so.0:_ZN5aria216BtUnchokeMessageC1Ev
libaria2.so.0:_ZN5aria216BtUnchokeMessageC2Ev
libaria2.so.0:_ZN5aria216DHTTaskQueueImpl11executeTaskEv
libaria2.so.0:_ZN5aria216DHTTaskQueueImpl16addImmediateTaskERKSt10shared_ptrINS_7DHTTaskEE
libaria2.so.0:_ZN5aria216DHTTaskQueueImpl16addPeriodicTask1ERKSt10shared_ptrINS_7DHTTaskEE
libaria2.so.0:_ZN5aria216DHTTaskQueueImpl16addPeriodicTask2ERKSt10shared_ptrINS_7DHTTaskEE
libaria2.so.0:_ZN5aria216DHTTaskQueueImplC1Ev
libaria2.so.0:_ZN5aria216DHTTaskQueueImplC2Ev
libaria2.so.0:_ZN5aria216DHTTaskQueueImplD0Ev
libaria2.so.0:_ZN5aria216DHTTaskQueueImplD1Ev
libaria2.so.0:_ZN5aria216DHTTaskQueueImplD2Ev
libaria2.so.0:_ZN5aria216HaveEraseCommand10preProcessEv
libaria2.so.0:_ZN5aria216HaveEraseCommand7processEv
libaria2.so.0:_ZN5aria216HaveEraseCommandC1ElPNS_14DownloadEngineENSt6chrono8durationIlSt5ratioILl1ELl1EEEE
libaria2.so.0:_ZN5aria216HaveEraseCommandC2ElPNS_14DownloadEngineENSt6chrono8durationIlSt5ratioILl1ELl1EEEE
libaria2.so.0:_ZN5aria216HaveEraseCommandD0Ev
libaria2.so.0:_ZN5aria216HaveEraseCommandD1Ev
libaria2.so.0:_ZN5aria216HaveEraseCommandD2Ev
libaria2.so.0:_ZN5aria216HttpRequestEntry14popHttpRequestEv
libaria2.so.0:_ZN5aria216HttpRequestEntry24resetHttpHeaderProcessorEv
libaria2.so.0:_ZN5aria216HttpRequestEntryC1ESt10unique_ptrINS_11HttpRequestESt14default_deleteIS2_EE
libaria2.so.0:_ZN5aria216HttpRequestEntryC2ESt10unique_ptrINS_11HttpRequestESt14default_deleteIS2_EE
libaria2.so.0:_ZN5aria216MetalinkResourceC1Ev
libaria2.so.0:_ZN5aria216MetalinkResourceC2Ev
libaria2.so.0:_ZN5aria216MetalinkResourceD1Ev
libaria2.so.0:_ZN5aria216MetalinkResourceD2Ev
libaria2.so.0:_ZN5aria216MultiDiskAdaptor10enableMmapEv
libaria2.so.0:_ZN5aria216MultiDiskAdaptor10fileExistsEv
libaria2.so.0:_ZN5aria216MultiDiskAdaptor10writeCacheEPKNS_16WrDiskCacheEntryE
libaria2.so.0:_ZN5aria216MultiDiskAdaptor12tryCloseFileEm
libaria2.so.0:_ZN5aria216MultiDiskAdaptor14enableReadOnlyEv
libaria2.so.0:_ZN5aria216MultiDiskAdaptor14flushOSBuffersEv
libaria2.so.0:_ZN5aria216MultiDiskAdaptor15disableReadOnlyEv
libaria2.so.0:_ZN5aria216MultiDiskAdaptor15initAndOpenFileEv
libaria2.so.0:_ZN5aria216MultiDiskAdaptor16openExistingFileEv
libaria2.so.0:_ZN5aria216MultiDiskAdaptor17readDataDropCacheEPhml
libaria2.so.0:_ZN5aria216MultiDiskAdaptor18cutTrailingGarbageEv
libaria2.so.0:_ZN5aria216MultiDiskAdaptor22fileAllocationIteratorEv
libaria2.so.0:_ZN5aria216MultiDiskAdaptor22resetDiskWriterEntriesEv
libaria2.so.0:_ZN5aria216MultiDiskAdaptor4sizeEv
libaria2.so.0:_ZN5aria216MultiDiskAdaptor5utimeERKNS_4TimeES3_
libaria2.so.0:_ZN5aria216MultiDiskAdaptor8openFileEv
libaria2.so.0:_ZN5aria216MultiDiskAdaptor8readDataEPhml
libaria2.so.0:_ZN5aria216MultiDiskAdaptor8readDataEPhmlb
libaria2.so.0:_ZN5aria216MultiDiskAdaptor9closeFileEv
libaria2.so.0:_ZN5aria216MultiDiskAdaptor9openIfNotEPNS_15DiskWriterEntryEMS1_FvvE
libaria2.so.0:_ZN5aria216MultiDiskAdaptor9writeDataEPKhml
libaria2.so.0:_ZN5aria216MultiDiskAdaptorC1Ev
libaria2.so.0:_ZN5aria216MultiDiskAdaptorC2Ev
libaria2.so.0:_ZN5aria216MultiDiskAdaptorD0Ev
libaria2.so.0:_ZN5aria216MultiDiskAdaptorD1Ev
libaria2.so.0:_ZN5aria216MultiDiskAdaptorD2Ev
libaria2.so.0:_ZN5aria216PeerChokeCommand12setBtRuntimeERKSt10shared_ptrINS_9BtRuntimeEE
libaria2.so.0:_ZN5aria216PeerChokeCommand14setPeerStorageERKSt10shared_ptrINS_11PeerStorageEE
libaria2.so.0:_ZN5aria216PeerChokeCommand7executeEv
libaria2.so.0:_ZN5aria216PeerChokeCommandC1ElPNS_14DownloadEngineE
libaria2.so.0:_ZN5aria216PeerChokeCommandC2ElPNS_14DownloadEngineE
libaria2.so.0:_ZN5aria216PeerChokeCommandD0Ev
libaria2.so.0:_ZN5aria216PeerChokeCommandD1Ev
libaria2.so.0:_ZN5aria216PeerChokeCommandD2Ev
libaria2.so.0:_ZN5aria216ProtocolDetectorC1Ev
libaria2.so.0:_ZN5aria216ProtocolDetectorC2Ev
libaria2.so.0:_ZN5aria216ProtocolDetectorD1Ev
libaria2.so.0:_ZN5aria216ProtocolDetectorD2Ev
libaria2.so.0:_ZN5aria216SeedCheckCommand12setBtRuntimeERKSt10shared_ptrINS_9BtRuntimeEE
libaria2.so.0:_ZN5aria216SeedCheckCommand15setPieceStorageERKSt10shared_ptrINS_12PieceStorageEE
libaria2.so.0:_ZN5aria216SeedCheckCommand7executeEv
libaria2.so.0:_ZN5aria216SeedCheckCommandC1ElPNS_12RequestGroupEPNS_14DownloadEngineESt10unique_ptrINS_12SeedCriteriaESt14default_deleteIS6_EE
libaria2.so.0:_ZN5aria216SeedCheckCommandC2ElPNS_12RequestGroupEPNS_14DownloadEngineESt10unique_ptrINS_12SeedCriteriaESt14default_deleteIS6_EE
libaria2.so.0:_ZN5aria216SeedCheckCommandD0Ev
libaria2.so.0:_ZN5aria216SeedCheckCommandD1Ev
libaria2.so.0:_ZN5aria216SeedCheckCommandD2Ev
libaria2.so.0:_ZN5aria216SimpleRandomizer11getInstanceEv
libaria2.so.0:_ZN5aria216SimpleRandomizer14getRandomBytesEPhm
libaria2.so.0:_ZN5aria216SimpleRandomizer15getRandomNumberEl
libaria2.so.0:_ZN5aria216SimpleRandomizerC1Ev
libaria2.so.0:_ZN5aria216SimpleRandomizerC2Ev
libaria2.so.0:_ZN5aria216SimpleRandomizerD0Ev
libaria2.so.0:_ZN5aria216SimpleRandomizerD1Ev
libaria2.so.0:_ZN5aria216SimpleRandomizerD2Ev
libaria2.so.0:_ZN5aria216SinkStreamFilter9transformERKSt10shared_ptrINS_12BinaryStreamEERKS1_INS_7SegmentEEPKhm
libaria2.so.0:_ZN5aria216SinkStreamFilterC1EPNS_11WrDiskCacheEb
libaria2.so.0:_ZN5aria216SinkStreamFilterC2EPNS_11WrDiskCacheEb
libaria2.so.0:_ZN5aria216SocketRecvBuffer14truncateBufferEv
libaria2.so.0:_ZN5aria216SocketRecvBuffer4recvEv
libaria2.so.0:_ZN5aria216SocketRecvBuffer5drainEm
libaria2.so.0:_ZN5aria216SocketRecvBufferC1ESt10shared_ptrINS_10SocketCoreEE
libaria2.so.0:_ZN5aria216SocketRecvBufferC2ESt10shared_ptrINS_10SocketCoreEE
libaria2.so.0:_ZN5aria216SocketRecvBufferD1Ev
libaria2.so.0:_ZN5aria216SocketRecvBufferD2Ev
libaria2.so.0:_ZN5aria216TimeBasedCommand7executeEv
libaria2.so.0:_ZN5aria216TimeBasedCommandC1ElPNS_14DownloadEngineENSt6chrono8durationIlSt5ratioILl1ELl1EEEEb
libaria2.so.0:_ZN5aria216TimeBasedCommandC2ElPNS_14DownloadEngineENSt6chrono8durationIlSt5ratioILl1ELl1EEEEb
libaria2.so.0:_ZN5aria216TimeBasedCommandD0Ev
libaria2.so.0:_ZN5aria216TimeBasedCommandD1Ev
libaria2.so.0:_ZN5aria216TimeBasedCommandD2Ev
libaria2.so.0:_ZN5aria216TimeSeedCriteria5resetEv
libaria2.so.0:_ZN5aria216TimeSeedCriteria8evaluateEv
libaria2.so.0:_ZN5aria216TimeSeedCriteriaC1ENSt6chrono8durationIlSt5ratioILl1ELl1EEEE
libaria2.so.0:_ZN5aria216TimeSeedCriteriaC2ENSt6chrono8durationIlSt5ratioILl1ELl1EEEE
libaria2.so.0:_ZN5aria216TimeSeedCriteriaD0Ev
libaria2.so.0:_ZN5aria216TimeSeedCriteriaD1Ev
libaria2.so.0:_ZN5aria216TimeSeedCriteriaD2Ev
libaria2.so.0:_ZN5aria216TimedHaltCommand10preProcessEv
libaria2.so.0:_ZN5aria216TimedHaltCommand7processEv
libaria2.so.0:_ZN5aria216TimedHaltCommandC1ElPNS_14DownloadEngineENSt6chrono8durationIlSt5ratioILl1ELl1EEEEb
libaria2.so.0:_ZN5aria216TimedHaltCommandC2ElPNS_14DownloadEngineENSt6chrono8durationIlSt5ratioILl1ELl1EEEEb
libaria2.so.0:_ZN5aria216TimedHaltCommandD0Ev
libaria2.so.0:_ZN5aria216TimedHaltCommandD1Ev
libaria2.so.0:_ZN5aria216TimedHaltCommandD2Ev
libaria2.so.0:_ZN5aria216TorrentAttributeC1Ev
libaria2.so.0:_ZN5aria216TorrentAttributeC2Ev
libaria2.so.0:_ZN5aria216TorrentAttributeD0Ev
libaria2.so.0:_ZN5aria216TorrentAttributeD1Ev
libaria2.so.0:_ZN5aria216TorrentAttributeD2Ev
libaria2.so.0:_ZN5aria216UDPTrackerClient10addRequestERKSt10shared_ptrINS_17UDPTrackerRequestEE
libaria2.so.0:_ZN5aria216UDPTrackerClient11failConnectERKNSt7__cxx1112basic_stringIcSt11char_traitsIcESaIcEEEti
libaria2.so.0:_ZN5aria216UDPTrackerClient11requestFailEi
libaria2.so.0:_ZN5aria216UDPTrackerClient11requestSentERKNS_5TimerE
libaria2.so.0:_ZN5aria216UDPTrackerClient12receiveReplyERSt10shared_ptrINS_17UDPTrackerRequestEEPKhmRKNSt7__cxx1112basic_stringIcSt11char_traitsIcESaIcEEEtRKNS_5TimerE
libaria2.so.0:_ZN5aria216UDPTrackerClient13createRequestEPhmRNSt7__cxx1112basic_stringIcSt11char_traitsIcESaIcEEERtRKNS_5TimerE
libaria2.so.0:_ZN5aria216UDPTrackerClient13handleTimeoutERKNS_5TimerE
libaria2.so.0:_ZN5aria216UDPTrackerClient15getConnectionIdERKNSt7__cxx1112basic_stringIcSt11char_traitsIcESaIcEEEtRKNS_5TimerE
libaria2.so.0:_ZN5aria216UDPTrackerClient16decreaseWatchersEv
libaria2.so.0:_ZN5aria216UDPTrackerClient16increaseWatchersEv
libaria2.so.0:_ZN5aria216UDPTrackerClient19findInflightRequestERKNSt7__cxx1112basic_stringIcSt11char_traitsIcESaIcEEEtjb
libaria2.so.0:_ZN5aria216UDPTrackerClient7failAllEv
libaria2.so.0:_ZN5aria216UDPTrackerClientC1Ev
libaria2.so.0:_ZN5aria216UDPTrackerClientC2Ev
libaria2.so.0:_ZN5aria216UDPTrackerClientD1Ev
libaria2.so.0:_ZN5aria216UDPTrackerClientD2Ev
libaria2.so.0:_ZN5aria216WrDiskCacheEntry11writeToDiskEv
libaria2.so.0:_ZN5aria216WrDiskCacheEntry15deleteDataCellsEv
libaria2.so.0:_ZN5aria216WrDiskCacheEntry5clearEv
libaria2.so.0:_ZN5aria216WrDiskCacheEntry6appendElPKhm
libaria2.so.0:_ZN5aria216WrDiskCacheEntry9cacheDataEPNS0_8DataCellE
libaria2.so.0:_ZN5aria216WrDiskCacheEntryC1ERKSt10shared_ptrINS_11DiskAdaptorEE
libaria2.so.0:_ZN5aria216WrDiskCacheEntryC2ERKSt10shared_ptrINS_11DiskAdaptorEE
libaria2.so.0:_ZN5aria216WrDiskCacheEntryD1Ev
libaria2.so.0:_ZN5aria216WrDiskCacheEntryD2Ev
libaria2.so.0:_ZN5aria216getGlobalOptionsB5cxx11EPNS_7SessionE
libaria2.so.0:_ZN5aria217AbstractBtMessage15setPieceStorageEPNS_12PieceStorageE
libaria2.so.0:_ZN5aria217AbstractBtMessage17setPeerConnectionEPNS_14PeerConnectionE
libaria2.so.0:_ZN5aria217AbstractBtMessage19setBtMessageFactoryEPNS_16BtMessageFactoryE
libaria2.so.0:_ZN5aria217AbstractBtMessage19setBtRequestFactoryEPNS_16BtRequestFactoryE
libaria2.so.0:_ZN5aria217AbstractBtMessage21setBtMessageValidatorESt10unique_ptrINS_18BtMessageValidatorESt14default_deleteIS2_EE
libaria2.so.0:_ZN5aria217AbstractBtMessage22setBtMessageDispatcherEPNS_19BtMessageDispatcherE
libaria2.so.0:_ZN5aria217AbstractBtMessage7setPeerERKSt10shared_ptrINS_4PeerEE
libaria2.so.0:_ZN5aria217AbstractBtMessage8validateEv
libaria2.so.0:_ZN5aria217AbstractBtMessageC1EhPKc
libaria2.so.0:_ZN5aria217AbstractBtMessageC2EhPKc
libaria2.so.0:_ZN5aria217AbstractBtMessageD0Ev
libaria2.so.0:_ZN5aria217AbstractBtMessageD1Ev
libaria2.so.0:_ZN5aria217AbstractBtMessageD2Ev
libaria2.so.0:_ZN5aria217AsyncNameResolver5resetEv
libaria2.so.0:_ZN5aria217AsyncNameResolver7processEP6fd_setS2_
libaria2.so.0:_ZN5aria217AsyncNameResolver7processEii
libaria2.so.0:_ZN5aria217AsyncNameResolver7resolveERKNSt7__cxx1112basic_stringIcSt11char_traitsIcESaIcEEE
libaria2.so.0:_ZN5aria217AsyncNameResolverC1EiP14ares_addr_node
libaria2.so.0:_ZN5aria217AsyncNameResolverC2EiP14ares_addr_node
libaria2.so.0:_ZN5aria217AsyncNameResolverD1Ev
libaria2.so.0:_ZN5aria217AsyncNameResolverD2Ev
libaria2.so.0:_ZN5aria217AuthConfigFactory13findBasicCredERKNSt7__cxx1112basic_stringIcSt11char_traitsIcESaIcEEEtS8_
libaria2.so.0:_ZN5aria217AuthConfigFactory15updateBasicCredESt10unique_ptrINS_9BasicCredESt14default_deleteIS2_EE
libaria2.so.0:_ZN5aria217AuthConfigFactory16createAuthConfigERKSt10shared_ptrINS_7RequestEEPKNS_6OptionE
libaria2.so.0:_ZN5aria217AuthConfigFactory17activateBasicCredERKNSt7__cxx1112basic_stringIcSt11char_traitsIcESaIcEEEtS8_PKNS_6OptionE
libaria2.so.0:_ZN5aria217AuthConfigFactory8setNetrcESt10unique_ptrINS_5NetrcESt14default_deleteIS2_EE
libaria2.so.0:_ZN5aria217AuthConfigFactoryC1Ev
libaria2.so.0:_ZN5aria217AuthConfigFactoryC2Ev
libaria2.so.0:_ZN5aria217AuthConfigFactoryD1Ev
libaria2.so.0:_ZN5aria217AuthConfigFactoryD2Ev
libaria2.so.0:_ZN5aria217BackupConnectInfoC1Ev
libaria2.so.0:_ZN5aria217BackupConnectInfoC2Ev
libaria2.so.0:_ZN5aria217BtBitfieldMessage11setBitfieldEPKhm
libaria2.so.0:_ZN5aria217BtBitfieldMessage13createMessageEv
libaria2.so.0:_ZN5aria217BtBitfieldMessage16doReceivedActionEv
libaria2.so.0:_ZN5aria217BtBitfieldMessage6createEPKhm
libaria2.so.0:_ZN5aria217BtBitfieldMessageC1EPKhm
libaria2.so.0:_ZN5aria217BtBitfieldMessageC1Ev
libaria2.so.0:_ZN5aria217BtBitfieldMessageC2EPKhm
libaria2.so.0:_ZN5aria217BtBitfieldMessageC2Ev
libaria2.so.0:_ZN5aria217BtBitfieldMessageD0Ev
libaria2.so.0:_ZN5aria217BtBitfieldMessageD1Ev
libaria2.so.0:_ZN5aria217BtBitfieldMessageD2Ev
libaria2.so.0:_ZN5aria217BtExtendedMessage13createMessageEv
libaria2.so.0:_ZN5aria217BtExtendedMessage16doReceivedActionEv
libaria2.so.0:_ZN5aria217BtExtendedMessage6createEPNS_23ExtensionMessageFactoryERKSt10shared_ptrINS_4PeerEEPKhm
libaria2.so.0:_ZN5aria217BtExtendedMessageC1ESt10unique_ptrINS_16ExtensionMessageESt14default_deleteIS2_EE
libaria2.so.0:_ZN5aria217BtExtendedMessageC2ESt10unique_ptrINS_16ExtensionMessageESt14default_deleteIS2_EE
libaria2.so.0:_ZN5aria217BtHaveNoneMessage16doReceivedActionEv
libaria2.so.0:_ZN5aria217BtHaveNoneMessage6createEPKhm
libaria2.so.0:_ZN5aria217BtHaveNoneMessageC1Ev
libaria2.so.0:_ZN5aria217BtHaveNoneMessageC2Ev
libaria2.so.0:_ZN5aria217DHTBucketTreeNode13resetRelationEv
libaria2.so.0:_ZN5aria217DHTBucketTreeNode3digEPKh
libaria2.so.0:_ZN5aria217DHTBucketTreeNode5splitEv
libaria2.so.0:_ZN5aria217DHTBucketTreeNodeC1ESt10shared_ptrINS_9DHTBucketEE
libaria2.so.0:_ZN5aria217DHTBucketTreeNodeC1ESt10unique_ptrIS0_St14default_deleteIS0_EES4_
libaria2.so.0:_ZN5aria217DHTBucketTreeNodeC2ESt10shared_ptrINS_9DHTBucketEE
libaria2.so.0:_ZN5aria217DHTBucketTreeNodeC2ESt10unique_ptrIS0_St14default_deleteIS0_EES4_
libaria2.so.0:_ZN5aria217DHTBucketTreeNodeD1Ev
libaria2.so.0:_ZN5aria217DHTBucketTreeNodeD2Ev
libaria2.so.0:_ZN5aria217DHTConnectionImpl11sendMessageEPKhmRKNSt7__cxx1112basic_stringIcSt11char_traitsIcESaIcEEEt
libaria2.so.0:_ZN5aria217DHTConnectionImpl14receiveMessageEPhmRNSt7__cxx1112basic_stringIcSt11char_traitsIcESaIcEEERt
libaria2.so.0:_ZN5aria217DHTConnectionImpl4bindERtRKNSt7__cxx1112basic_stringIcSt11char_traitsIcESaIcEEE
libaria2.so.0:_ZN5aria217DHTConnectionImpl4bindERtRKNSt7__cxx1112basic_stringIcSt11char_traitsIcESaIcEEERNS_7SegListIiEE
libaria2.so.0:_ZN5aria217DHTConnectionImplC1Ei
libaria2.so.0:_ZN5aria217DHTConnectionImplC2Ei
libaria2.so.0:_ZN5aria217DHTConnectionImplD0Ev
libaria2.so.0:_ZN5aria217DHTConnectionImplD1Ev
libaria2.so.0:_ZN5aria217DHTConnectionImplD2Ev
libaria2.so.0:_ZN5aria217DHTMessageTracker10addMessageEPNS_10DHTMessageENSt6chrono8durationIlSt5ratioILl1ELl1EEEESt10unique_ptrINS_18DHTMessageCallbackESt14default_deleteIS9_EE
libaria2.so.0:_ZN5aria217DHTMessageTracker13handleTimeoutEv
libaria2.so.0:_ZN5aria217DHTMessageTracker14messageArrivedEPKNS_4DictERKNSt7__cxx1112basic_stringIcSt11char_traitsIcESaIcEEEt
libaria2.so.0:_ZN5aria217DHTMessageTracker15setRoutingTableEPNS_15DHTRoutingTableE
libaria2.so.0:_ZN5aria217DHTMessageTracker17setMessageFactoryEPNS_17DHTMessageFactoryE
libaria2.so.0:_ZN5aria217DHTMessageTracker18handleTimeoutEntryEPNS_22DHTMessageTrackerEntryE
libaria2.so.0:_ZN5aria217DHTMessageTrackerC1Ev
libaria2.so.0:_ZN5aria217DHTMessageTrackerC2Ev
libaria2.so.0:_ZN5aria217DHTNodeLookupTask13createMessageERKSt10shared_ptrINS_7DHTNodeEE
libaria2.so.0:_ZN5aria217DHTNodeLookupTask14createCallbackEv
libaria2.so.0:_ZN5aria217DHTNodeLookupTask19getNodesFromMessageERSt6vectorISt10shared_ptrINS_7DHTNodeEESaIS4_EEPKNS_23DHTFindNodeReplyMessageE
libaria2.so.0:_ZN5aria217DHTNodeLookupTaskC1EPKh
libaria2.so.0:_ZN5aria217DHTNodeLookupTaskC2EPKh
libaria2.so.0:_ZN5aria217DHTPeerLookupTask13createMessageERKSt10shared_ptrINS_7DHTNodeEE
libaria2.so.0:_ZN5aria217DHTPeerLookupTask14createCallbackEv
libaria2.so.0:_ZN5aria217DHTPeerLookupTask14setPeerStorageERKSt10shared_ptrINS_11PeerStorageEE
libaria2.so.0:_ZN5aria217DHTPeerLookupTask18onReceivedInternalEPKNS_23DHTGetPeersReplyMessageE
libaria2.so.0:_ZN5aria217DHTPeerLookupTask19getNodesFromMessageERSt6vectorISt10shared_ptrINS_7DHTNodeEESaIS4_EEPKNS_23DHTGetPeersReplyMessageE
libaria2.so.0:_ZN5aria217DHTPeerLookupTask8onFinishEv
libaria2.so.0:_ZN5aria217DHTPeerLookupTaskC1ERKSt10shared_ptrINS_15DownloadContextEEt
libaria2.so.0:_ZN5aria217DHTPeerLookupTaskC2ERKSt10shared_ptrINS_15DownloadContextEEt
libaria2.so.0:_ZN5aria217DHTUnknownMessage16doReceivedActionEv
libaria2.so.0:_ZN5aria217DHTUnknownMessage4sendEv
libaria2.so.0:_ZN5aria217DHTUnknownMessageC1ERKSt10shared_ptrINS_7DHTNodeEEPKhmRKNSt7__cxx1112basic_stringIcSt11char_traitsIcESaIcEEEt
libaria2.so.0:_ZN5aria217DHTUnknownMessageC2ERKSt10shared_ptrINS_7DHTNodeEEPKhmRKNSt7__cxx1112basic_stringIcSt11char_traitsIcESaIcEEEt
libaria2.so.0:_ZN5aria217DHTUnknownMessageD0Ev
libaria2.so.0:_ZN5aria217DHTUnknownMessageD1Ev
libaria2.so.0:_ZN5aria217DHTUnknownMessageD2Ev
libaria2.so.0:_ZN5aria217DefaultBtAnnounce12setBtRuntimeERKSt10shared_ptrINS_9BtRuntimeEE
libaria2.so.0:_ZN5aria217DefaultBtAnnounce13announceStartEv
libaria2.so.0:_ZN5aria217DefaultBtAnnounce13resetAnnounceEv
libaria2.so.0:_ZN5aria217DefaultBtAnnounce13setRandomizerEPNS_10RandomizerE
libaria2.so.0:_ZN5aria217DefaultBtAnnounce14getAnnounceUrlB5cxx11Ev
libaria2.so.0:_ZN5aria217DefaultBtAnnounce14noMoreAnnounceEv
libaria2.so.0:_ZN5aria217DefaultBtAnnounce14setPeerStorageERKSt10shared_ptrINS_11PeerStorageEE
libaria2.so.0:_ZN5aria217DefaultBtAnnounce15announceFailureEv
libaria2.so.0:_ZN5aria217DefaultBtAnnounce15announceSuccessEv
libaria2.so.0:_ZN5aria217DefaultBtAnnounce15isAnnounceReadyEv
libaria2.so.0:_ZN5aria217DefaultBtAnnounce15setPieceStorageERKSt10shared_ptrINS_12PieceStorageEE
libaria2.so.0:_ZN5aria217DefaultBtAnnounce15shuffleAnnounceEv
libaria2.so.0:_ZN5aria217DefaultBtAnnounce18adjustAnnounceListEv
libaria2.so.0:_ZN5aria217DefaultBtAnnounce19isAllAnnounceFailedEv
libaria2.so.0:_ZN5aria217DefaultBtAnnounce19overrideMinIntervalENSt6chrono8durationIlSt5ratioILl1ELl1EEEE
libaria2.so.0:_ZN5aria217DefaultBtAnnounce22isDefaultAnnounceReadyEv
libaria2.so.0:_ZN5aria217DefaultBtAnnounce22isStoppedAnnounceReadyEv
libaria2.so.0:_ZN5aria217DefaultBtAnnounce23createUDPTrackerRequestERKNSt7__cxx1112basic_stringIcSt11char_traitsIcESaIcEEEtt
libaria2.so.0:_ZN5aria217DefaultBtAnnounce23processAnnounceResponseEPKhm
libaria2.so.0:_ZN5aria217DefaultBtAnnounce24isCompletedAnnounceReadyEv
libaria2.so.0:_ZN5aria217DefaultBtAnnounce25processUDPTrackerResponseERKSt10shared_ptrINS_17UDPTrackerRequestEE
libaria2.so.0:_ZN5aria217DefaultBtAnnounceC1EPNS_15DownloadContextEPKNS_6OptionE
libaria2.so.0:_ZN5aria217DefaultBtAnnounceC2EPNS_15DownloadContextEPKNS_6OptionE
libaria2.so.0:_ZN5aria217DefaultBtAnnounceD0Ev
libaria2.so.0:_ZN5aria217DefaultBtAnnounceD1Ev
libaria2.so.0:_ZN5aria217DefaultBtAnnounceD2Ev
libaria2.so.0:_ZN5aria217DefaultDiskWriter15initAndOpenFileEl
libaria2.so.0:_ZN5aria217DefaultDiskWriterC1ERKNSt7__cxx1112basic_stringIcSt11char_traitsIcESaIcEEE
libaria2.so.0:_ZN5aria217DefaultDiskWriterC2ERKNSt7__cxx1112basic_stringIcSt11char_traitsIcESaIcEEE
libaria2.so.0:_ZN5aria217DefaultDiskWriterD0Ev
libaria2.so.0:_ZN5aria217DefaultDiskWriterD1Ev
libaria2.so.0:_ZN5aria217DefaultDiskWriterD2Ev
libaria2.so.0:_ZN5aria217DirectDiskAdaptor11getFilePathB5cxx11Ev
libaria2.so.0:_ZN5aria217DirectDiskAdaptor5utimeERKNS_4TimeES3_
libaria2.so.0:_ZN5aria217HttpListenCommand7executeEv
libaria2.so.0:_ZN5aria217HttpListenCommand8bindPortEt
libaria2.so.0:_ZN5aria217HttpListenCommandC1ElPNS_14DownloadEngineEib
libaria2.so.0:_ZN5aria217HttpListenCommandC2ElPNS_14DownloadEngineEib
libaria2.so.0:_ZN5aria217HttpListenCommandD0Ev
libaria2.so.0:_ZN5aria217HttpListenCommandD1Ev
libaria2.so.0:_ZN5aria217HttpListenCommandD2Ev
libaria2.so.0:_ZN5aria217HttpServerCommand16updateWriteCheckEv
libaria2.so.0:_ZN5aria217HttpServerCommand21checkSocketRecvBufferEv
libaria2.so.0:_ZN5aria217HttpServerCommand7executeEv
libaria2.so.0:_ZN5aria217HttpServerCommandC1ElPNS_14DownloadEngineERKSt10shared_ptrINS_10SocketCoreEEb
libaria2.so.0:_ZN5aria217HttpServerCommandC1ElRKSt10shared_ptrINS_10HttpServerEEPNS_14DownloadEngineERKS1_INS_10SocketCoreEE
libaria2.so.0:_ZN5aria217HttpServerCommandC2ElPNS_14DownloadEngineERKSt10shared_ptrINS_10SocketCoreEEb
libaria2.so.0:_ZN5aria217HttpServerCommandC2ElRKSt10shared_ptrINS_10HttpServerEEPNS_14DownloadEngineERKS1_INS_10SocketCoreEE
libaria2.so.0:_ZN5aria217HttpServerCommandD0Ev
libaria2.so.0:_ZN5aria217HttpServerCommandD1Ev
libaria2.so.0:_ZN5aria217HttpServerCommandD2Ev
libaria2.so.0:_ZN5aria217MessageDigestImpl4sha1Ev
libaria2.so.0:_ZN5aria217MetalinkHttpEntry4swapERS0_
libaria2.so.0:_ZN5aria217MetalinkHttpEntryC1Ev
libaria2.so.0:_ZN5aria217MetalinkHttpEntryC2Ev
libaria2.so.0:_ZN5aria217MetalinkHttpEntryD1Ev
libaria2.so.0:_ZN5aria217MetalinkHttpEntryD2Ev
libaria2.so.0:_ZN5aria217NetrcAuthResolver10useDefaultEv
libaria2.so.0:_ZN5aria217NetrcAuthResolver13ignoreDefaultEv
libaria2.so.0:_ZN5aria217NetrcAuthResolver17resolveAuthConfigERKNSt7__cxx1112basic_stringIcSt11char_traitsIcESaIcEEE
libaria2.so.0:_ZN5aria217NetrcAuthResolver8setNetrcEPNS_5NetrcE
libaria2.so.0:_ZN5aria217NetrcAuthResolverC1Ev
libaria2.so.0:_ZN5aria217NetrcAuthResolverC2Ev
libaria2.so.0:_ZN5aria217OpenSSLTLSContext17addCredentialFileERKNSt7__cxx1112basic_stringIcSt11char_traitsIcESaIcEEES8_
libaria2.so.0:_ZN5aria217OpenSSLTLSContext20addP12CredentialFileERKNSt7__cxx1112basic_stringIcSt11char_traitsIcESaIcEEE
libaria2.so.0:_ZN5aria217OpenSSLTLSContext20addTrustedCACertFileERKNSt7__cxx1112basic_stringIcSt11char_traitsIcESaIcEEE
libaria2.so.0:_ZN5aria217OpenSSLTLSContext23addSystemTrustedCACertsEv
libaria2.so.0:_ZN5aria217OpenSSLTLSContextC1ENS_14TLSSessionSideENS_10TLSVersionE
libaria2.so.0:_ZN5aria217OpenSSLTLSContextC2ENS_14TLSSessionSideENS_10TLSVersionE
libaria2.so.0:_ZN5aria217OpenSSLTLSContextD0Ev
libaria2.so.0:_ZN5aria217OpenSSLTLSContextD1Ev
libaria2.so.0:_ZN5aria217OpenSSLTLSContextD2Ev
libaria2.so.0:_ZN5aria217OpenSSLTLSSession10tlsConnectERKNSt7__cxx1112basic_stringIcSt11char_traitsIcESaIcEEERNS_10TLSVersionERS6_
libaria2.so.0:_ZN5aria217OpenSSLTLSSession14checkDirectionEv
libaria2.so.0:_ZN5aria217OpenSSLTLSSession14setSNIHostnameERKNSt7__cxx1112basic_stringIcSt11char_traitsIcESaIcEEE
libaria2.so.0:_ZN5aria217OpenSSLTLSSession15closeConnectionEv
libaria2.so.0:_ZN5aria217OpenSSLTLSSession18getLastErrorStringB5cxx11Ev
libaria2.so.0:_ZN5aria217OpenSSLTLSSession4initEi
libaria2.so.0:_ZN5aria217OpenSSLTLSSession8readDataEPvm
libaria2.so.0:_ZN5aria217OpenSSLTLSSession9handshakeERNS_10TLSVersionE
libaria2.so.0:_ZN5aria217OpenSSLTLSSession9tlsAcceptERNS_10TLSVersionE
libaria2.so.0:_ZN5aria217OpenSSLTLSSession9writeDataEPKvm
libaria2.so.0:_ZN5aria217OpenSSLTLSSessionC1EPNS_17OpenSSLTLSContextE
libaria2.so.0:_ZN5aria217OpenSSLTLSSessionC2EPNS_17OpenSSLTLSContextE
libaria2.so.0:_ZN5aria217OpenSSLTLSSessionD0Ev
libaria2.so.0:_ZN5aria217OpenSSLTLSSessionD1Ev
libaria2.so.0:_ZN5aria217OpenSSLTLSSessionD2Ev
libaria2.so.0:_ZN5aria217OpenedFileCounter10deactivateEv
libaria2.so.0:_ZN5aria217OpenedFileCounter21reduceNumOfOpenedFileEm
libaria2.so.0:_ZN5aria217OpenedFileCounter22ensureMaxOpenFileLimitEm
libaria2.so.0:_ZN5aria217OpenedFileCounterC1EPNS_15RequestGroupManEm
libaria2.so.0:_ZN5aria217OpenedFileCounterC2EPNS_15RequestGroupManEm
libaria2.so.0:_ZN5aria217PeerListenCommand7executeEv
libaria2.so.0:_ZN5aria217PeerListenCommand8bindPortERtRNS_7SegListIiEE
libaria2.so.0:_ZN5aria217PeerListenCommandC1ElPNS_14DownloadEngineEi
libaria2.so.0:_ZN5aria217PeerListenCommandC2ElPNS_14DownloadEngineEi
libaria2.so.0:_ZN5aria217PeerListenCommandD0Ev
libaria2.so.0:_ZN5aria217PeerListenCommandD1Ev
libaria2.so.0:_ZN5aria217PeerListenCommandD2Ev
libaria2.so.0:_ZN5aria217RequestGroupEntry14popNextCommandEv
libaria2.so.0:_ZN5aria217RequestGroupEntry15pushNextCommandESt10unique_ptrINS_7CommandESt14default_deleteIS2_EE
libaria2.so.0:_ZN5aria217RequestGroupEntryC1EPNS_12RequestGroupESt10unique_ptrINS_7CommandESt14default_deleteIS4_EE
libaria2.so.0:_ZN5aria217RequestGroupEntryC2EPNS_12RequestGroupESt10unique_ptrINS_7CommandESt14default_deleteIS4_EE
libaria2.so.0:_ZN5aria217RequestGroupEntryD0Ev
libaria2.so.0:_ZN5aria217RequestGroupEntryD1Ev
libaria2.so.0:_ZN5aria217RequestGroupEntryD2Ev
libaria2.so.0:_ZN5aria217SessionSerializerC1EPNS_15RequestGroupManE
libaria2.so.0:_ZN5aria217SessionSerializerC2EPNS_15RequestGroupManE
libaria2.so.0:_ZN5aria217UDPTrackerRequestC1Ev
libaria2.so.0:_ZN5aria217UDPTrackerRequestC2Ev
libaria2.so.0:_ZN5aria217UnionSeedCriteria15addSeedCriteriaESt10unique_ptrINS_12SeedCriteriaESt14default_deleteIS2_EE
libaria2.so.0:_ZN5aria217UnionSeedCriteria5resetEv
libaria2.so.0:_ZN5aria217UnionSeedCriteria8evaluateEv
libaria2.so.0:_ZN5aria217UnionSeedCriteriaC1Ev
libaria2.so.0:_ZN5aria217UnionSeedCriteriaC2Ev
libaria2.so.0:_ZN5aria217UnionSeedCriteriaD0Ev
libaria2.so.0:_ZN5aria217UnionSeedCriteriaD1Ev
libaria2.so.0:_ZN5aria217UnionSeedCriteriaD2Ev
libaria2.so.0:_ZN5aria217download_handlers23getBtPreDownloadHandlerEv
libaria2.so.0:_ZN5aria217download_handlers24getBtPostDownloadHandlerEv
libaria2.so.0:_ZN5aria217download_handlers27getMemoryPreDownloadHandlerEv
libaria2.so.0:_ZN5aria217download_handlers29getMetalinkPreDownloadHandlerEv
libaria2.so.0:_ZN5aria217download_handlers30getMetalinkPostDownloadHandlerEv
libaria2.so.0:_ZN5aria217download_handlers32getUTMetadataPostDownloadHandlerEv
libaria2.so.0:_ZN5aria217getActiveDownloadEPNS_7SessionE
libaria2.so.0:_ZN5aria217getBtContentTypesEv
libaria2.so.0:_ZN5aria217getDownloadHandleEPNS_7SessionEm
libaria2.so.0:_ZN5aria217openUriListParserERKNSt7__cxx1112basic_stringIcSt11char_traitsIcESaIcEEE
libaria2.so.0:_ZN5aria217option_processingERNS_6OptionEbRSt6vectorINSt7__cxx1112basic_stringIcSt11char_traitsIcESaIcEEESaIS8_EEiPPcRKS2_ISt4pairIS8_S8_ESaISF_EE
libaria2.so.0:_ZN5aria217pauseRequestGroupERKSt10shared_ptrINS_12RequestGroupEEbb
libaria2.so.0:_ZN5aria217setDefaultAIFlagsEi
libaria2.so.0:_ZN5aria218AbstractDiskWriter10createFileEi
libaria2.so.0:_ZN5aria218AbstractDiskWriter10enableMmapEv
libaria2.so.0:_ZN5aria218AbstractDiskWriter14enableReadOnlyEv
libaria2.so.0:_ZN5aria218AbstractDiskWriter14flushOSBuffersEv
libaria2.so.0:_ZN5aria218AbstractDiskWriter15disableReadOnlyEv
libaria2.so.0:_ZN5aria218AbstractDiskWriter15ensureMmapWriteEml
libaria2.so.0:_ZN5aria218AbstractDiskWriter16openExistingFileEl
libaria2.so.0:_ZN5aria218AbstractDiskWriter16readDataInternalEPhml
libaria2.so.0:_ZN5aria218AbstractDiskWriter17writeDataInternalEPKhml
libaria2.so.0:_ZN5aria218AbstractDiskWriter4seekEl
libaria2.so.0:_ZN5aria218AbstractDiskWriter4sizeEv
libaria2.so.0:_ZN5aria218AbstractDiskWriter8allocateEllb
libaria2.so.0:_ZN5aria218AbstractDiskWriter8openFileEl
libaria2.so.0:_ZN5aria218AbstractDiskWriter8readDataEPhml
libaria2.so.0:_ZN5aria218AbstractDiskWriter8truncateEl
libaria2.so.0:_ZN5aria218AbstractDiskWriter9closeFileEv
libaria2.so.0:_ZN5aria218AbstractDiskWriter9dropCacheEll
libaria2.so.0:_ZN5aria218AbstractDiskWriter9writeDataEPKhml
libaria2.so.0:_ZN5aria218AbstractDiskWriterC1ERKNSt7__cxx1112basic_stringIcSt11char_traitsIcESaIcEEE
libaria2.so.0:_ZN5aria218AbstractDiskWriterC2ERKNSt7__cxx1112basic_stringIcSt11char_traitsIcESaIcEEE
libaria2.so.0:_ZN5aria218AbstractDiskWriterD0Ev
libaria2.so.0:_ZN5aria218AbstractDiskWriterD1Ev
libaria2.so.0:_ZN5aria218AbstractDiskWriterD2Ev
libaria2.so.0:_ZN5aria218BtHandshakeMessage11setInfoHashEPKh
libaria2.so.0:_ZN5aria218BtHandshakeMessage13createMessageEv
libaria2.so.0:_ZN5aria218BtHandshakeMessage4initEv
libaria2.so.0:_ZN5aria218BtHandshakeMessage6createEPKhm
libaria2.so.0:_ZN5aria218BtHandshakeMessage9setPeerIdEPKh
libaria2.so.0:_ZN5aria218BtHandshakeMessageC1EPKhS2_
libaria2.so.0:_ZN5aria218BtHandshakeMessageC1Ev
libaria2.so.0:_ZN5aria218BtHandshakeMessageC2EPKhS2_
libaria2.so.0:_ZN5aria218BtHandshakeMessageC2Ev
libaria2.so.0:_ZN5aria218BtHandshakeMessageD0Ev
libaria2.so.0:_ZN5aria218BtHandshakeMessageD1Ev
libaria2.so.0:_ZN5aria218BtHandshakeMessageD2Ev
libaria2.so.0:_ZN5aria218BtKeepAliveMessage13createMessageEv
libaria2.so.0:_ZN5aria218BtSeederStateChoke12executeChokeERKSt3setISt10shared_ptrINS_4PeerEENS_7RefLessIS3_EESaIS4_EE
libaria2.so.0:_ZN5aria218BtSeederStateChoke7unchokeERSt6vectorINS0_9PeerEntryESaIS2_EE
libaria2.so.0:_ZN5aria218BtSeederStateChoke9PeerEntry19disableOptUnchokingEv
libaria2.so.0:_ZN5aria218BtSeederStateChoke9PeerEntry4swapERS1_
libaria2.so.0:_ZN5aria218BtSeederStateChoke9PeerEntryC1ERKS1_
libaria2.so.0:_ZN5aria218BtSeederStateChoke9PeerEntryC1ERKSt10shared_ptrINS_4PeerEE
libaria2.so.0:_ZN5aria218BtSeederStateChoke9PeerEntryC2ERKS1_
libaria2.so.0:_ZN5aria218BtSeederStateChoke9PeerEntryC2ERKSt10shared_ptrINS_4PeerEE
libaria2.so.0:_ZN5aria218BtSeederStateChoke9PeerEntryD1Ev
libaria2.so.0:_ZN5aria218BtSeederStateChoke9PeerEntryD2Ev
libaria2.so.0:_ZN5aria218BtSeederStateChoke9PeerEntryaSERKS1_
libaria2.so.0:_ZN5aria218BtSeederStateChokeC1Ev
libaria2.so.0:_ZN5aria218BtSeederStateChokeC2Ev
libaria2.so.0:_ZN5aria218BtSeederStateChokeD1Ev
libaria2.so.0:_ZN5aria218BtSeederStateChokeD2Ev
libaria2.so.0:_ZN5aria218DHTAbstractMessage13setConnectionEPNS_13DHTConnectionE
libaria2.so.0:_ZN5aria218DHTAbstractMessage15setRoutingTableEPNS_15DHTRoutingTableE
libaria2.so.0:_ZN5aria218DHTAbstractMessage17setMessageFactoryEPNS_17DHTMessageFactoryE
libaria2.so.0:_ZN5aria218DHTAbstractMessage18getBencodedMessageB5cxx11Ev
libaria2.so.0:_ZN5aria218DHTAbstractMessage20setMessageDispatcherEPNS_20DHTMessageDispatcherE
libaria2.so.0:_ZN5aria218DHTAbstractMessage4sendEv
libaria2.so.0:_ZN5aria218DHTAbstractMessageC1ERKSt10shared_ptrINS_7DHTNodeEES5_RKNSt7__cxx1112basic_stringIcSt11char_traitsIcESaIcEEE
libaria2.so.0:_ZN5aria218DHTAbstractMessageC2ERKSt10shared_ptrINS_7DHTNodeEES5_RKNSt7__cxx1112basic_stringIcSt11char_traitsIcESaIcEEE
libaria2.so.0:_ZN5aria218DHTAutoSaveCommand10preProcessEv
libaria2.so.0:_ZN5aria218DHTAutoSaveCommand12setLocalNodeERKSt10shared_ptrINS_7DHTNodeEE
libaria2.so.0:_ZN5aria218DHTAutoSaveCommand15setRoutingTableEPNS_15DHTRoutingTableE
libaria2.so.0:_ZN5aria218DHTAutoSaveCommand4saveEv
libaria2.so.0:_ZN5aria218DHTAutoSaveCommand7processEv
libaria2.so.0:_ZN5aria218DHTAutoSaveCommandC1ElPNS_14DownloadEngineEiNSt6chrono8durationIlSt5ratioILl1ELl1EEEE
libaria2.so.0:_ZN5aria218DHTAutoSaveCommandC2ElPNS_14DownloadEngineEiNSt6chrono8durationIlSt5ratioILl1ELl1EEEE
libaria2.so.0:_ZN5aria218DHTAutoSaveCommandD0Ev
libaria2.so.0:_ZN5aria218DHTAutoSaveCommandD1Ev
libaria2.so.0:_ZN5aria218DHTAutoSaveCommandD2Ev
libaria2.so.0:_ZN5aria218DHTFindNodeMessage11getArgumentEv
libaria2.so.0:_ZN5aria218DHTFindNodeMessage16doReceivedActionEv
libaria2.so.0:_ZN5aria218DHTFindNodeMessageC1ERKSt10shared_ptrINS_7DHTNodeEES5_PKhRKNSt7__cxx1112basic_stringIcSt11char_traitsIcESaIcEEE
libaria2.so.0:_ZN5aria218DHTFindNodeMessageC2ERKSt10shared_ptrINS_7DHTNodeEES5_PKhRKNSt7__cxx1112basic_stringIcSt11char_traitsIcESaIcEEE
libaria2.so.0:_ZN5aria218DHTGetPeersCommand12setBtRuntimeERKSt10shared_ptrINS_9BtRuntimeEE
libaria2.so.0:_ZN5aria218DHTGetPeersCommand12setTaskQueueEPNS_12DHTTaskQueueE
libaria2.so.0:_ZN5aria218DHTGetPeersCommand14setPeerStorageERKSt10shared_ptrINS_11PeerStorageEE
libaria2.so.0:_ZN5aria218DHTGetPeersCommand14setTaskFactoryEPNS_14DHTTaskFactoryE
libaria2.so.0:_ZN5aria218DHTGetPeersCommand7executeEv
libaria2.so.0:_ZN5aria218DHTGetPeersCommandC1ElPNS_12RequestGroupEPNS_14DownloadEngineE
libaria2.so.0:_ZN5aria218DHTGetPeersCommandC2ElPNS_12RequestGroupEPNS_14DownloadEngineE
libaria2.so.0:_ZN5aria218DHTGetPeersCommandD0Ev
libaria2.so.0:_ZN5aria218DHTGetPeersCommandD1Ev
libaria2.so.0:_ZN5aria218DHTGetPeersCommandD2Ev
libaria2.so.0:_ZN5aria218DHTGetPeersMessage11getArgumentEv
libaria2.so.0:_ZN5aria218DHTGetPeersMessage12addLocalPeerERSt6vectorISt10shared_ptrINS_4PeerEESaIS4_EE
libaria2.so.0:_ZN5aria218DHTGetPeersMessage13setBtRegistryEPNS_10BtRegistryE
libaria2.so.0:_ZN5aria218DHTGetPeersMessage15setTokenTrackerEPNS_15DHTTokenTrackerE
libaria2.so.0:_ZN5aria218DHTGetPeersMessage16doReceivedActionEv
libaria2.so.0:_ZN5aria218DHTGetPeersMessage22setPeerAnnounceStorageEPNS_22DHTPeerAnnounceStorageE
libaria2.so.0:_ZN5aria218DHTGetPeersMessage9setFamilyEi
libaria2.so.0:_ZN5aria218DHTGetPeersMessageC1ERKSt10shared_ptrINS_7DHTNodeEES5_PKhRKNSt7__cxx1112basic_stringIcSt11char_traitsIcESaIcEEE
libaria2.so.0:_ZN5aria218DHTGetPeersMessageC2ERKSt10shared_ptrINS_7DHTNodeEES5_PKhRKNSt7__cxx1112basic_stringIcSt11char_traitsIcESaIcEEE
libaria2.so.0:_ZN5aria218DHTMessageReceiver13handleTimeoutEv
libaria2.so.0:_ZN5aria218DHTMessageReceiver14receiveMessageERKNSt7__cxx1112basic_stringIcSt11char_traitsIcESaIcEEEtPhm
libaria2.so.0:_ZN5aria218DHTMessageReceiver15setRoutingTableEPNS_15DHTRoutingTableE
libaria2.so.0:_ZN5aria218DHTMessageReceiver17onMessageReceivedEPNS_10DHTMessageE
libaria2.so.0:_ZN5aria218DHTMessageReceiver17setMessageFactoryEPNS_17DHTMessageFactoryE
libaria2.so.0:_ZN5aria218DHTMessageReceiver20handleUnknownMessageEPKhmRKNSt7__cxx1112basic_stringIcSt11char_traitsIcESaIcEEEt
libaria2.so.0:_ZN5aria218DHTMessageReceiverC1ERKSt10shared_ptrINS_17DHTMessageTrackerEE
libaria2.so.0:_ZN5aria218DHTMessageReceiverC2ERKSt10shared_ptrINS_17DHTMessageTrackerEE
libaria2.so.0:_ZN5aria218DHTNodeLookupEntryC1ERKSt10shared_ptrINS_7DHTNodeEE
libaria2.so.0:_ZN5aria218DHTNodeLookupEntryC1Ev
libaria2.so.0:_ZN5aria218DHTNodeLookupEntryC2ERKSt10shared_ptrINS_7DHTNodeEE
libaria2.so.0:_ZN5aria218DHTNodeLookupEntryC2Ev
libaria2.so.0:_ZN5aria218DHTReplaceNodeTask10onReceivedEPKNS_19DHTPingReplyMessageE
libaria2.so.0:_ZN5aria218DHTReplaceNodeTask11sendMessageEv
libaria2.so.0:_ZN5aria218DHTReplaceNodeTask7startupEv
libaria2.so.0:_ZN5aria218DHTReplaceNodeTask9onTimeoutERKSt10shared_ptrINS_7DHTNodeEE
libaria2.so.0:_ZN5aria218DHTReplaceNodeTaskC1ERKSt10shared_ptrINS_9DHTBucketEERKS1_INS_7DHTNodeEE
libaria2.so.0:_ZN5aria218DHTReplaceNodeTaskC2ERKSt10shared_ptrINS_9DHTBucketEERKS1_INS_7DHTNodeEE
libaria2.so.0:_ZN5aria218DHTReplaceNodeTaskD0Ev
libaria2.so.0:_ZN5aria218DHTReplaceNodeTaskD1Ev
libaria2.so.0:_ZN5aria218DHTReplaceNodeTaskD2Ev
libaria2.so.0:_ZN5aria218DHTResponseMessage11fillMessageEPNS_4DictE
libaria2.so.0:_ZN5aria218DHTResponseMessageC1ERKSt10shared_ptrINS_7DHTNodeEES5_RKNSt7__cxx1112basic_stringIcSt11char_traitsIcESaIcEEE
libaria2.so.0:_ZN5aria218DHTResponseMessageC2ERKSt10shared_ptrINS_7DHTNodeEES5_RKNSt7__cxx1112basic_stringIcSt11char_traitsIcESaIcEEE
libaria2.so.0:_ZN5aria218DHTResponseMessageD0Ev
libaria2.so.0:_ZN5aria218DHTResponseMessageD1Ev
libaria2.so.0:_ZN5aria218DHTResponseMessageD2Ev
libaria2.so.0:_ZN5aria218DHTTaskFactoryImpl12setLocalNodeERKSt10shared_ptrINS_7DHTNodeEE
libaria2.so.0:_ZN5aria218DHTTaskFactoryImpl12setTaskQueueEPNS_12DHTTaskQueueE
libaria2.so.0:_ZN5aria218DHTTaskFactoryImpl14createPingTaskERKSt10shared_ptrINS_7DHTNodeEEi
libaria2.so.0:_ZN5aria218DHTTaskFactoryImpl15setRoutingTableEPNS_15DHTRoutingTableE
libaria2.so.0:_ZN5aria218DHTTaskFactoryImpl17setCommonPropertyERKSt10shared_ptrINS_15DHTAbstractTaskEE
libaria2.so.0:_ZN5aria218DHTTaskFactoryImpl17setMessageFactoryEPNS_17DHTMessageFactoryE
libaria2.so.0:_ZN5aria218DHTTaskFactoryImpl20createNodeLookupTaskEPKh
libaria2.so.0:_ZN5aria218DHTTaskFactoryImpl20createPeerLookupTaskERKSt10shared_ptrINS_15DownloadContextEEtRKS1_INS_11PeerStorageEE
libaria2.so.0:_ZN5aria218DHTTaskFactoryImpl20setMessageDispatcherEPNS_20DHTMessageDispatcherE
libaria2.so.0:_ZN5aria218DHTTaskFactoryImpl21createReplaceNodeTaskERKSt10shared_ptrINS_9DHTBucketEERKS1_INS_7DHTNodeEE
libaria2.so.0:_ZN5aria218DHTTaskFactoryImpl22createPeerAnnounceTaskEPKh
libaria2.so.0:_ZN5aria218DHTTaskFactoryImpl23createBucketRefreshTaskEv
libaria2.so.0:_ZN5aria218DHTTaskFactoryImplC1Ev
libaria2.so.0:_ZN5aria218DHTTaskFactoryImplC2Ev
libaria2.so.0:_ZN5aria218DHTTaskFactoryImplD0Ev
libaria2.so.0:_ZN5aria218DHTTaskFactoryImplD1Ev
libaria2.so.0:_ZN5aria218DHTTaskFactoryImplD2Ev
libaria2.so.0:_ZN5aria218DefaultPeerStorage10addBadPeerERKNSt7__cxx1112basic_stringIcSt11char_traitsIcESaIcEEE
libaria2.so.0:_ZN5aria218DefaultPeerStorage10returnPeerERKSt10shared_ptrINS_4PeerEE
libaria2.so.0:_ZN5aria218DefaultPeerStorage11addUniqPeerERKSt10shared_ptrINS_4PeerEE
libaria2.so.0:_ZN5aria218DefaultPeerStorage12checkoutPeerEl
libaria2.so.0:_ZN5aria218DefaultPeerStorage12executeChokeEv
libaria2.so.0:_ZN5aria218DefaultPeerStorage12getUsedPeersEv
libaria2.so.0:_ZN5aria218DefaultPeerStorage12setBtRuntimeERKSt10shared_ptrINS_9BtRuntimeEE
libaria2.so.0:_ZN5aria218DefaultPeerStorage13onErasingPeerERKSt10shared_ptrINS_4PeerEE
libaria2.so.0:_ZN5aria218DefaultPeerStorage14addDroppedPeerERKSt10shared_ptrINS_4PeerEE
libaria2.so.0:_ZN5aria218DefaultPeerStorage14getUnusedPeersEv
libaria2.so.0:_ZN5aria218DefaultPeerStorage15getDroppedPeersEv
libaria2.so.0:_ZN5aria218DefaultPeerStorage15isPeerAvailableEv
libaria2.so.0:_ZN5aria218DefaultPeerStorage15onReturningPeerERKSt10shared_ptrINS_4PeerEE
libaria2.so.0:_ZN5aria218DefaultPeerStorage15setPieceStorageERKSt10shared_ptrINS_12PieceStorageEE
libaria2.so.0:_ZN5aria218DefaultPeerStorage16deleteUnusedPeerEm
libaria2.so.0:_ZN5aria218DefaultPeerStorage18addAndCheckoutPeerERKSt10shared_ptrINS_4PeerEEl
libaria2.so.0:_ZN5aria218DefaultPeerStorage18isPeerAlreadyAddedERKSt10shared_ptrINS_4PeerEE
libaria2.so.0:_ZN5aria218DefaultPeerStorage25chokeRoundIntervalElapsedEv
libaria2.so.0:_ZN5aria218DefaultPeerStorage7addPeerERKSt10shared_ptrINS_4PeerEE
libaria2.so.0:_ZN5aria218DefaultPeerStorage7addPeerERKSt6vectorISt10shared_ptrINS_4PeerEESaIS4_EE
libaria2.so.0:_ZN5aria218DefaultPeerStorage9isBadPeerERKNSt7__cxx1112basic_stringIcSt11char_traitsIcESaIcEEE
libaria2.so.0:_ZN5aria218DefaultPeerStorageC1Ev
libaria2.so.0:_ZN5aria218DefaultPeerStorageC2Ev
libaria2.so.0:_ZN5aria218DefaultPeerStorageD0Ev
libaria2.so.0:_ZN5aria218DefaultPeerStorageD1Ev
libaria2.so.0:_ZN5aria218DefaultPeerStorageD2Ev
libaria2.so.0:_ZN5aria218FtpDownloadCommand21prepareForNextSegmentEv
libaria2.so.0:_ZN5aria218FtpDownloadCommandC1ElRKSt10shared_ptrINS_7RequestEERKS1_INS_9FileEntryEEPNS_12RequestGroupERKS1_INS_13FtpConnectionEEPNS_14DownloadEngineERKS1_INS_10SocketCoreEESL_
libaria2.so.0:_ZN5aria218FtpDownloadCommandC2ElRKSt10shared_ptrINS_7RequestEERKS1_INS_9FileEntryEEPNS_12RequestGroupERKS1_INS_13FtpConnectionEEPNS_14DownloadEngineERKS1_INS_10SocketCoreEESL_
libaria2.so.0:_ZN5aria218FtpDownloadCommandD0Ev
libaria2.so.0:_ZN5aria218FtpDownloadCommandD1Ev
libaria2.so.0:_ZN5aria218FtpDownloadCommandD2Ev
libaria2.so.0:_ZN5aria218HttpRequestCommand15executeInternalEv
libaria2.so.0:_ZN5aria218HttpRequestCommand15setProxyRequestERKSt10shared_ptrINS_7RequestEE
libaria2.so.0:_ZN5aria218HttpRequestCommandC1ElRKSt10shared_ptrINS_7RequestEERKS1_INS_9FileEntryEEPNS_12RequestGroupERKS1_INS_14HttpConnectionEEPNS_14DownloadEngineERKS1_INS_10SocketCoreEE
libaria2.so.0:_ZN5aria218HttpRequestCommandC2ElRKSt10shared_ptrINS_7RequestEERKS1_INS_9FileEntryEEPNS_12RequestGroupERKS1_INS_14HttpConnectionEEPNS_14DownloadEngineERKS1_INS_10SocketCoreEE
libaria2.so.0:_ZN5aria218HttpRequestCommandD0Ev
libaria2.so.0:_ZN5aria218HttpRequestCommandD1Ev
libaria2.so.0:_ZN5aria218HttpRequestCommandD2Ev
libaria2.so.0:_ZN5aria218InorderURISelector6selectEPNS_9FileEntryERKSt6vectorISt4pairImNSt7__cxx1112basic_stringIcSt11char_traitsIcESaIcEEEESaISB_EE
libaria2.so.0:_ZN5aria218InorderURISelectorC1Ev
libaria2.so.0:_ZN5aria218InorderURISelectorC2Ev
libaria2.so.0:_ZN5aria218InorderURISelectorD0Ev
libaria2.so.0:_ZN5aria218InorderURISelectorD1Ev
libaria2.so.0:_ZN5aria218InorderURISelectorD2Ev
libaria2.so.0:_ZN5aria218KeepRunningCommand7executeEv
libaria2.so.0:_ZN5aria218KeepRunningCommandC1ElPNS_14DownloadEngineE
libaria2.so.0:_ZN5aria218KeepRunningCommandC2ElPNS_14DownloadEngineE
libaria2.so.0:_ZN5aria218KeepRunningCommandD0Ev
libaria2.so.0:_ZN5aria218KeepRunningCommandD1Ev
libaria2.so.0:_ZN5aria218KeepRunningCommandD2Ev
libaria2.so.0:_ZN5aria218LpdMessageReceiver14receiveMessageEv
libaria2.so.0:_ZN5aria218LpdMessageReceiver4initERKNSt7__cxx1112basic_stringIcSt11char_traitsIcESaIcEEE
libaria2.so.0:_ZN5aria218LpdMessageReceiverC1ERKNSt7__cxx1112basic_stringIcSt11char_traitsIcESaIcEEEt
libaria2.so.0:_ZN5aria218LpdMessageReceiverC2ERKNSt7__cxx1112basic_stringIcSt11char_traitsIcESaIcEEEt
libaria2.so.0:_ZN5aria218LpdMessageReceiverD1Ev
libaria2.so.0:_ZN5aria218LpdMessageReceiverD2Ev
libaria2.so.0:_ZN5aria218NameResolveCommand10onShutdownEv
libaria2.so.0:_ZN5aria218NameResolveCommand15resolveHostnameERSt6vectorINSt7__cxx1112basic_stringIcSt11char_traitsIcESaIcEEESaIS7_EERKS7_
libaria2.so.0:_ZN5aria218NameResolveCommand7executeEv
libaria2.so.0:_ZN5aria218NameResolveCommand9onFailureEv
libaria2.so.0:_ZN5aria218NameResolveCommand9onSuccessERKSt6vectorINSt7__cxx1112basic_stringIcSt11char_traitsIcESaIcEEESaIS7_EEPNS_14DownloadEngineE
libaria2.so.0:_ZN5aria218NameResolveCommandC1ElPNS_14DownloadEngineERKSt10shared_ptrINS_17UDPTrackerRequestEE
libaria2.so.0:_ZN5aria218NameResolveCommandC2ElPNS_14DownloadEngineERKSt10shared_ptrINS_17UDPTrackerRequestEE
libaria2.so.0:_ZN5aria218NameResolveCommandD0Ev
libaria2.so.0:_ZN5aria218NameResolveCommandD1Ev
libaria2.so.0:_ZN5aria218NameResolveCommandD2Ev
libaria2.so.0:_ZN5aria218SaveSessionCommand10preProcessEv
libaria2.so.0:_ZN5aria218SaveSessionCommand7processEv
libaria2.so.0:_ZN5aria218SaveSessionCommandC1ElPNS_14DownloadEngineENSt6chrono8durationIlSt5ratioILl1ELl1EEEE
libaria2.so.0:_ZN5aria218SaveSessionCommandC2ElPNS_14DownloadEngineENSt6chrono8durationIlSt5ratioILl1ELl1EEEE
libaria2.so.0:_ZN5aria218SaveSessionCommandD0Ev
libaria2.so.0:_ZN5aria218SaveSessionCommandD1Ev
libaria2.so.0:_ZN5aria218SaveSessionCommandD2Ev
libaria2.so.0:_ZN5aria218changeGlobalOptionEPNS_7SessionERKSt6vectorISt4pairINSt7__cxx1112basic_stringIcSt11char_traitsIcESaIcEEES9_ESaISA_EE
libaria2.so.0:_ZN5aria218changeGlobalOptionERKNS_6OptionEPNS_14DownloadEngineE
libaria2.so.0:_ZN5aria219AdaptiveURISelector13resetCountersEv
libaria2.so.0:_ZN5aria219AdaptiveURISelector19tuneDownloadCommandERKSt5dequeINSt7__cxx1112basic_stringIcSt11char_traitsIcESaIcEEESaIS7_EEPNS_15DownloadCommandE
libaria2.so.0:_ZN5aria219AdaptiveURISelector28mayRetryWithIncreasedTimeoutEPNS_9FileEntryE
libaria2.so.0:_ZN5aria219AdaptiveURISelector6selectEPNS_9FileEntryERKSt6vectorISt4pairImNSt7__cxx1112basic_stringIcSt11char_traitsIcESaIcEEEESaISB_EE
libaria2.so.0:_ZN5aria219AdaptiveURISelector9selectOneERKSt5dequeINSt7__cxx1112basic_stringIcSt11char_traitsIcESaIcEEESaIS7_EE
libaria2.so.0:_ZN5aria219AdaptiveURISelectorC1ESt10shared_ptrINS_13ServerStatManEEPNS_12RequestGroupE
libaria2.so.0:_ZN5aria219AdaptiveURISelectorC2ESt10shared_ptrINS_13ServerStatManEEPNS_12RequestGroupE
libaria2.so.0:_ZN5aria219AdaptiveURISelectorD0Ev
libaria2.so.0:_ZN5aria219AdaptiveURISelectorD1Ev
libaria2.so.0:_ZN5aria219AdaptiveURISelectorD2Ev
libaria2.so.0:_ZN5aria219BtInterestedMessage14setPeerStorageEPNS_11PeerStorageE
libaria2.so.0:_ZN5aria219BtInterestedMessage16doReceivedActionEv
libaria2.so.0:_ZN5aria219BtInterestedMessage6createEPKhm
libaria2.so.0:_ZN5aria219BtInterestedMessageC1Ev
libaria2.so.0:_ZN5aria219BtInterestedMessageC2Ev
libaria2.so.0:_ZN5aria219BtInterestedMessageD0Ev
libaria2.so.0:_ZN5aria219BtInterestedMessageD1Ev
libaria2.so.0:_ZN5aria219BtInterestedMessageD2Ev
libaria2.so.0:_ZN5aria219BtLeecherStateChoke12executeChokeERKSt3setISt10shared_ptrINS_4PeerEENS_7RefLessIS3_EESaIS4_EE
libaria2.so.0:_ZN5aria219BtLeecherStateChoke14regularUnchokeERSt6vectorINS0_9PeerEntryESaIS2_EE
libaria2.so.0:_ZN5aria219BtLeecherStateChoke24plannedOptimisticUnchokeERSt6vectorINS0_9PeerEntryESaIS2_EE
libaria2.so.0:_ZN5aria219BtLeecherStateChoke9PeerEntry18enableOptUnchokingEv
libaria2.so.0:_ZN5aria219BtLeecherStateChoke9PeerEntry19disableOptUnchokingEv
libaria2.so.0:_ZN5aria219BtLeecherStateChoke9PeerEntry21enableChokingRequiredEv
libaria2.so.0:_ZN5aria219BtLeecherStateChoke9PeerEntry22disableChokingRequiredEv
libaria2.so.0:_ZN5aria219BtLeecherStateChoke9PeerEntry4swapERS1_
libaria2.so.0:_ZN5aria219BtLeecherStateChoke9PeerEntryC1ERKS1_
libaria2.so.0:_ZN5aria219BtLeecherStateChoke9PeerEntryC1ERKSt10shared_ptrINS_4PeerEE
libaria2.so.0:_ZN5aria219BtLeecherStateChoke9PeerEntryC2ERKS1_
libaria2.so.0:_ZN5aria219BtLeecherStateChoke9PeerEntryC2ERKSt10shared_ptrINS_4PeerEE
libaria2.so.0:_ZN5aria219BtLeecherStateChoke9PeerEntryD1Ev
libaria2.so.0:_ZN5aria219BtLeecherStateChoke9PeerEntryD2Ev
libaria2.so.0:_ZN5aria219BtLeecherStateChoke9PeerEntryaSERKS1_
libaria2.so.0:_ZN5aria219BtLeecherStateChokeC1Ev
libaria2.so.0:_ZN5aria219BtLeecherStateChokeC2Ev
libaria2.so.0:_ZN5aria219BtLeecherStateChokeD1Ev
libaria2.so.0:_ZN5aria219BtLeecherStateChokeD2Ev
libaria2.so.0:_ZN5aria219ByteArrayDiskWriter15initAndOpenFileEl
libaria2.so.0:_ZN5aria219ByteArrayDiskWriter16openExistingFileEl
libaria2.so.0:_ZN5aria219ByteArrayDiskWriter4sizeEv
libaria2.so.0:_ZN5aria219ByteArrayDiskWriter5clearEv
libaria2.so.0:_ZN5aria219ByteArrayDiskWriter8openFileEl
libaria2.so.0:_ZN5aria219ByteArrayDiskWriter8readDataEPhml
libaria2.so.0:_ZN5aria219ByteArrayDiskWriter9closeFileEv
libaria2.so.0:_ZN5aria219ByteArrayDiskWriter9setStringERKNSt7__cxx1112basic_stringIcSt11char_traitsIcESaIcEEE
libaria2.so.0:_ZN5aria219ByteArrayDiskWriter9writeDataEPKhml
libaria2.so.0:_ZN5aria219ByteArrayDiskWriterC1Em
libaria2.so.0:_ZN5aria219ByteArrayDiskWriterC2Em
libaria2.so.0:_ZN5aria219ByteArrayDiskWriterD0Ev
libaria2.so.0:_ZN5aria219ByteArrayDiskWriterD1Ev
libaria2.so.0:_ZN5aria219ByteArrayDiskWriterD2Ev
libaria2.so.0:_ZN5aria219CheckIntegrityEntry12setValidatorESt10unique_ptrINS_19IteratableValidatorESt14default_deleteIS2_EE
libaria2.so.0:_ZN5aria219CheckIntegrityEntry13validateChunkEv
libaria2.so.0:_ZN5aria219CheckIntegrityEntry14getTotalLengthEv
libaria2.so.0:_ZN5aria219CheckIntegrityEntry16getCurrentLengthEv
libaria2.so.0:_ZN5aria219CheckIntegrityEntry18cutTrailingGarbageEv
libaria2.so.0:_ZN5aria219CheckIntegrityEntry21proceedFileAllocationERSt6vectorISt10unique_ptrINS_7CommandESt14default_deleteIS3_EESaIS6_EES2_INS_19FileAllocationEntryES4_ISA_EEPNS_14DownloadEngineE
libaria2.so.0:_ZN5aria219CheckIntegrityEntry8finishedEv
libaria2.so.0:_ZN5aria219CheckIntegrityEntryC1EPNS_12RequestGroupESt10unique_ptrINS_7CommandESt14default_deleteIS4_EE
libaria2.so.0:_ZN5aria219CheckIntegrityEntryC2EPNS_12RequestGroupESt10unique_ptrINS_7CommandESt14default_deleteIS4_EE
libaria2.so.0:_ZN5aria219CheckIntegrityEntryD0Ev
libaria2.so.0:_ZN5aria219CheckIntegrityEntryD1Ev
libaria2.so.0:_ZN5aria219CheckIntegrityEntryD2Ev
libaria2.so.0:_ZN5aria219DHTPingReplyMessage11getResponseEv
libaria2.so.0:_ZN5aria219DHTPingReplyMessage16doReceivedActionEv
libaria2.so.0:_ZN5aria219DHTPingReplyMessage6acceptEPNS_18DHTMessageCallbackE
libaria2.so.0:_ZN5aria219DHTPingReplyMessageC1ERKSt10shared_ptrINS_7DHTNodeEES5_PKhRKNSt7__cxx1112basic_stringIcSt11char_traitsIcESaIcEEE
libaria2.so.0:_ZN5aria219DHTPingReplyMessageC2ERKSt10shared_ptrINS_7DHTNodeEES5_PKhRKNSt7__cxx1112basic_stringIcSt11char_traitsIcESaIcEEE
libaria2.so.0:_ZN5aria219DefaultAuthResolver17resolveAuthConfigERKNSt7__cxx1112basic_stringIcSt11char_traitsIcESaIcEEE
libaria2.so.0:_ZN5aria219DefaultPieceStorage11cancelPieceERKSt10shared_ptrINS_5PieceEEl
libaria2.so.0:_ZN5aria219DefaultPieceStorage11getBitfieldEv
libaria2.so.0:_ZN5aria219DefaultPieceStorage11initStorageEv
libaria2.so.0:_ZN5aria219DefaultPieceStorage11isPieceUsedEm
libaria2.so.0:_ZN5aria219DefaultPieceStorage11setBitfieldEPKhm
libaria2.so.0:_ZN5aria219DefaultPieceStorage12addUsedPieceERKSt10shared_ptrINS_5PieceEE
libaria2.so.0:_ZN5aria219DefaultPieceStorage13addPieceStatsEPKhm
libaria2.so.0:_ZN5aria219DefaultPieceStorage13addPieceStatsEm
libaria2.so.0:_ZN5aria219DefaultPieceStorage13checkOutPieceEml
libaria2.so.0:_ZN5aria219DefaultPieceStorage13completePieceERKSt10shared_ptrINS_5PieceEE
libaria2.so.0:_ZN5aria219DefaultPieceStorage14advertisePieceElmNS_5TimerE
libaria2.so.0:_ZN5aria219DefaultPieceStorage14getDiskAdaptorEv
libaria2.so.0:_ZN5aria219DefaultPieceStorage14getPieceLengthEm
libaria2.so.0:_ZN5aria219DefaultPieceStorage14getTotalLengthEv
libaria2.so.0:_ZN5aria219DefaultPieceStorage14getWrDiskCacheEv
libaria2.so.0:_ZN5aria219DefaultPieceStorage14markPiecesDoneEl
libaria2.so.0:_ZN5aria219DefaultPieceStorage15clearFileFilterEv
libaria2.so.0:_ZN5aria219DefaultPieceStorage15deleteUsedPieceERKSt10shared_ptrINS_5PieceEE
libaria2.so.0:_ZN5aria219DefaultPieceStorage15getMissingPieceERKSt10shared_ptrINS_4PeerEERKSt6vectorImSaImEEl
libaria2.so.0:_ZN5aria219DefaultPieceStorage15getMissingPieceERKSt10shared_ptrINS_4PeerEEl
libaria2.so.0:_ZN5aria219DefaultPieceStorage15getMissingPieceERSt6vectorISt10shared_ptrINS_5PieceEESaIS4_EEmPKhml
libaria2.so.0:_ZN5aria219DefaultPieceStorage15getMissingPieceERSt6vectorISt10shared_ptrINS_5PieceEESaIS4_EEmRKS2_INS_4PeerEERKS1_ImSaImEEl
libaria2.so.0:_ZN5aria219DefaultPieceStorage15getMissingPieceERSt6vectorISt10shared_ptrINS_5PieceEESaIS4_EEmRKS2_INS_4PeerEEl
libaria2.so.0:_ZN5aria219DefaultPieceStorage15getMissingPieceEmPKhml
libaria2.so.0:_ZN5aria219DefaultPieceStorage15getMissingPieceEml
libaria2.so.0:_ZN5aria219DefaultPieceStorage15hasMissingPieceERKSt10shared_ptrINS_4PeerEE
libaria2.so.0:_ZN5aria219DefaultPieceStorage15setupFileFilterEv
libaria2.so.0:_ZN5aria219DefaultPieceStorage16addInFlightPieceERKSt6vectorISt10shared_ptrINS_5PieceEESaIS4_EE
libaria2.so.0:_ZN5aria219DefaultPieceStorage16downloadFinishedEv
libaria2.so.0:_ZN5aria219DefaultPieceStorage16getNextUsedIndexEm
libaria2.so.0:_ZN5aria219DefaultPieceStorage16markPieceMissingEm
libaria2.so.0:_ZN5aria219DefaultPieceStorage16popPieceSelectorEv
libaria2.so.0:_ZN5aria219DefaultPieceStorage16setPieceSelectorESt10unique_ptrINS_13PieceSelectorESt14default_deleteIS2_EE
libaria2.so.0:_ZN5aria219DefaultPieceStorage16updatePieceStatsEPKhmS2_
libaria2.so.0:_ZN5aria219DefaultPieceStorage17getBitfieldLengthEv
libaria2.so.0:_ZN5aria219DefaultPieceStorage17getInFlightPiecesERSt6vectorISt10shared_ptrINS_5PieceEESaIS4_EE
libaria2.so.0:_ZN5aria219DefaultPieceStorage17markAllPiecesDoneEv
libaria2.so.0:_ZN5aria219DefaultPieceStorage18countInFlightPieceEv
libaria2.so.0:_ZN5aria219DefaultPieceStorage18getCompletedLengthEv
libaria2.so.0:_ZN5aria219DefaultPieceStorage18subtractPieceStatsEPKhm
libaria2.so.0:_ZN5aria219DefaultPieceStorage19allDownloadFinishedEv
libaria2.so.0:_ZN5aria219DefaultPieceStorage19getMissingFastPieceERKSt10shared_ptrINS_4PeerEERKSt6vectorImSaImEEl
libaria2.so.0:_ZN5aria219DefaultPieceStorage19getMissingFastPieceERKSt10shared_ptrINS_4PeerEEl
libaria2.so.0:_ZN5aria219DefaultPieceStorage19getMissingFastPieceERSt6vectorISt10shared_ptrINS_5PieceEESaIS4_EEmRKS2_INS_4PeerEERKS1_ImSaImEEl
libaria2.so.0:_ZN5aria219DefaultPieceStorage19getMissingFastPieceERSt6vectorISt10shared_ptrINS_5PieceEESaIS4_EEmRKS2_INS_4PeerEEl
libaria2.so.0:_ZN5aria219DefaultPieceStorage20onDownloadIncompleteEv
libaria2.so.0:_ZN5aria219DefaultPieceStorage20setDiskWriterFactoryERKSt10shared_ptrINS_17DiskWriterFactoryEE
libaria2.so.0:_ZN5aria219DefaultPieceStorage21flushWrDiskCacheEntryEb
libaria2.so.0:_ZN5aria219DefaultPieceStorage21hasMissingUnusedPieceEv
libaria2.so.0:_ZN5aria219DefaultPieceStorage21removeAdvertisedPieceERKNS_5TimerE
libaria2.so.0:_ZN5aria219DefaultPieceStorage22getFilteredTotalLengthEv
libaria2.so.0:_ZN5aria219DefaultPieceStorage23createFastIndexBitfieldERNS_11BitfieldManERKSt10shared_ptrINS_4PeerEE
libaria2.so.0:_ZN5aria219DefaultPieceStorage25getAdvertisedPieceIndexesERSt6vectorImSaImEElm
libaria2.so.0:_ZN5aria219DefaultPieceStorage26getFilteredCompletedLengthEv
libaria2.so.0:_ZN5aria219DefaultPieceStorage26isSelectiveDownloadingModeEv
libaria2.so.0:_ZN5aria219DefaultPieceStorage8getPieceEm
libaria2.so.0:_ZN5aria219DefaultPieceStorage8hasPieceEm
libaria2.so.0:_ZN5aria219DefaultPieceStorageC1ERKSt10shared_ptrINS_15DownloadContextEEPKNS_6OptionE
libaria2.so.0:_ZN5aria219DefaultPieceStorageC2ERKSt10shared_ptrINS_15DownloadContextEEPKNS_6OptionE
libaria2.so.0:_ZN5aria219DefaultPieceStorageD0Ev
libaria2.so.0:_ZN5aria219DefaultPieceStorageD1Ev
libaria2.so.0:_ZN5aria219DefaultPieceStorageD2Ev
libaria2.so.0:_ZN5aria219FeedbackURISelector11selectRarerERKSt5dequeINSt7__cxx1112basic_stringIcSt11char_traitsIcESaIcEEESaIS7_EERKSt6vectorISt4pairImS7_ESaISE_EE
libaria2.so.0:_ZN5aria219FeedbackURISelector12selectFasterERKSt5dequeINSt7__cxx1112basic_stringIcSt11char_traitsIcESaIcEEESaIS7_EERKSt6vectorISt4pairImS7_ESaISE_EE
libaria2.so.0:_ZN5aria219FeedbackURISelector6selectEPNS_9FileEntryERKSt6vectorISt4pairImNSt7__cxx1112basic_stringIcSt11char_traitsIcESaIcEEEESaISB_EE
libaria2.so.0:_ZN5aria219FeedbackURISelectorC1ERKSt10shared_ptrINS_13ServerStatManEE
libaria2.so.0:_ZN5aria219FeedbackURISelectorC2ERKSt10shared_ptrINS_13ServerStatManEE
libaria2.so.0:_ZN5aria219FeedbackURISelectorD0Ev
libaria2.so.0:_ZN5aria219FeedbackURISelectorD1Ev
libaria2.so.0:_ZN5aria219FeedbackURISelectorD2Ev
libaria2.so.0:_ZN5aria219FileAllocationEntry13allocateChunkEv
libaria2.so.0:_ZN5aria219FileAllocationEntry14getTotalLengthEv
libaria2.so.0:_ZN5aria219FileAllocationEntry16getCurrentLengthEv
libaria2.so.0:_ZN5aria219FileAllocationEntry8finishedEv
libaria2.so.0:_ZN5aria219FileAllocationEntryC1EPNS_12RequestGroupESt10unique_ptrINS_7CommandESt14default_deleteIS4_EE
libaria2.so.0:_ZN5aria219FileAllocationEntryC2EPNS_12RequestGroupESt10unique_ptrINS_7CommandESt14default_deleteIS4_EE
libaria2.so.0:_ZN5aria219FileAllocationEntryD0Ev
libaria2.so.0:_ZN5aria219FileAllocationEntryD1Ev
libaria2.so.0:_ZN5aria219FileAllocationEntryD2Ev
libaria2.so.0:_ZN5aria219HttpDownloadCommand21prepareForNextSegmentEv
libaria2.so.0:_ZN5aria219HttpDownloadCommandC1ElRKSt10shared_ptrINS_7RequestEERKS1_INS_9FileEntryEEPNS_12RequestGroupESt10unique_ptrINS_12HttpResponseESt14default_deleteISD_EERKS1_INS_14HttpConnectionEEPNS_14DownloadEngineERKS1_INS_10SocketCoreEE
libaria2.so.0:_ZN5aria219HttpDownloadCommandC2ElRKSt10shared_ptrINS_7RequestEERKS1_INS_9FileEntryEEPNS_12RequestGroupESt10unique_ptrINS_12HttpResponseESt14default_deleteISD_EERKS1_INS_14HttpConnectionEEPNS_14DownloadEngineERKS1_INS_10SocketCoreEE
libaria2.so.0:_ZN5aria219HttpDownloadCommandD0Ev
libaria2.so.0:_ZN5aria219HttpDownloadCommandD1Ev
libaria2.so.0:_ZN5aria219HttpDownloadCommandD2Ev
libaria2.so.0:_ZN5aria219HttpHeaderProcessor5clearEv
libaria2.so.0:_ZN5aria219HttpHeaderProcessor5parseEPKhm
libaria2.so.0:_ZN5aria219HttpHeaderProcessor5parseERKNSt7__cxx1112basic_stringIcSt11char_traitsIcESaIcEEE
libaria2.so.0:_ZN5aria219HttpHeaderProcessor9getResultEv
libaria2.so.0:_ZN5aria219HttpHeaderProcessorC1ENS0_10ParserModeE
libaria2.so.0:_ZN5aria219HttpHeaderProcessorC2ENS0_10ParserModeE
libaria2.so.0:_ZN5aria219HttpHeaderProcessorD1Ev
libaria2.so.0:_ZN5aria219HttpHeaderProcessorD2Ev
libaria2.so.0:_ZN5aria219HttpResponseCommand13checkChecksumERKSt10shared_ptrINS_15DownloadContextEERKNS_8ChecksumE
libaria2.so.0:_ZN5aria219HttpResponseCommand14poolConnectionEv
libaria2.so.0:_ZN5aria219HttpResponseCommand15executeInternalEv
libaria2.so.0:_ZN5aria219HttpResponseCommand16skipResponseBodyESt10unique_ptrINS_12HttpResponseESt14default_deleteIS2_EE
libaria2.so.0:_ZN5aria219HttpResponseCommand17onDryRunFileFoundEv
libaria2.so.0:_ZN5aria219HttpResponseCommand19handleOtherEncodingESt10unique_ptrINS_12HttpResponseESt14default_deleteIS2_EE
libaria2.so.0:_ZN5aria219HttpResponseCommand21handleDefaultEncodingESt10unique_ptrINS_12HttpResponseESt14default_deleteIS2_EE
libaria2.so.0:_ZN5aria219HttpResponseCommand22updateLastModifiedTimeERKNS_4TimeE
libaria2.so.0:_ZN5aria219HttpResponseCommand25createHttpDownloadCommandESt10unique_ptrINS_12HttpResponseESt14default_deleteIS2_EES1_INS_12StreamFilterES3_IS6_EE
libaria2.so.0:_ZN5aria219HttpResponseCommand28shouldInflateContentEncodingEPNS_12HttpResponseE
libaria2.so.0:_ZN5aria219HttpResponseCommandC1ElRKSt10shared_ptrINS_7RequestEERKS1_INS_9FileEntryEEPNS_12RequestGroupERKS1_INS_14HttpConnectionEEPNS_14DownloadEngineERKS1_INS_10SocketCoreEE
libaria2.so.0:_ZN5aria219HttpResponseCommandC2ElRKSt10shared_ptrINS_7RequestEERKS1_INS_9FileEntryEEPNS_12RequestGroupERKS1_INS_14HttpConnectionEEPNS_14DownloadEngineERKS1_INS_10SocketCoreEE
libaria2.so.0:_ZN5aria219HttpResponseCommandD0Ev
libaria2.so.0:_ZN5aria219HttpResponseCommandD1Ev
libaria2.so.0:_ZN5aria219HttpResponseCommandD2Ev
libaria2.so.0:_ZN5aria219MultiUrlRequestInfo19resetSignalHandlersEv
libaria2.so.0:_ZN5aria219MultiUrlRequestInfo19setupSignalHandlersEv
libaria2.so.0:_ZN5aria219MultiUrlRequestInfo23printMessageForContinueEv
libaria2.so.0:_ZN5aria219MultiUrlRequestInfo7executeEv
libaria2.so.0:_ZN5aria219MultiUrlRequestInfo7prepareEv
libaria2.so.0:_ZN5aria219MultiUrlRequestInfo9getResultEv
libaria2.so.0:_ZN5aria219MultiUrlRequestInfoC1ESt6vectorISt10shared_ptrINS_12RequestGroupEESaIS4_EERKS2_INS_6OptionEERKS2_INS_13UriListParserEE
libaria2.so.0:_ZN5aria219MultiUrlRequestInfoC2ESt6vectorISt10shared_ptrINS_12RequestGroupEESaIS4_EERKS2_INS_6OptionEERKS2_INS_13UriListParserEE
libaria2.so.0:_ZN5aria219MultiUrlRequestInfoD1Ev
libaria2.so.0:_ZN5aria219MultiUrlRequestInfoD2Ev
libaria2.so.0:_ZN5aria219NumberOptionHandlerC1EPKNS_4PrefEPKcRKNSt7__cxx1112basic_stringIcSt11char_traitsIcESaIcEEEllc
libaria2.so.0:_ZN5aria219NumberOptionHandlerC2EPKNS_4PrefEPKcRKNSt7__cxx1112basic_stringIcSt11char_traitsIcESaIcEEEllc
libaria2.so.0:_ZN5aria219NumberOptionHandlerD0Ev
libaria2.so.0:_ZN5aria219NumberOptionHandlerD1Ev
libaria2.so.0:_ZN5aria219NumberOptionHandlerD2Ev
libaria2.so.0:_ZN5aria219PeerAbstractCommand10setNoCheckEb
libaria2.so.0:_ZN5aria219PeerAbstractCommand12createSocketEv
libaria2.so.0:_ZN5aria219PeerAbstractCommand14addCommandSelfEv
libaria2.so.0:_ZN5aria219PeerAbstractCommand15updateKeepAliveEv
libaria2.so.0:_ZN5aria219PeerAbstractCommand18prepareForNextPeerEl
libaria2.so.0:_ZN5aria219PeerAbstractCommand18setReadCheckSocketERKSt10shared_ptrINS_10SocketCoreEE
libaria2.so.0:_ZN5aria219PeerAbstractCommand19setWriteCheckSocketERKSt10shared_ptrINS_10SocketCoreEE
libaria2.so.0:_ZN5aria219PeerAbstractCommand22disableReadCheckSocketEv
libaria2.so.0:_ZN5aria219PeerAbstractCommand23disableWriteCheckSocketEv
libaria2.so.0:_ZN5aria219PeerAbstractCommand7executeEv
libaria2.so.0:_ZN5aria219PeerAbstractCommandC1ElRKSt10shared_ptrINS_4PeerEEPNS_14DownloadEngineERKS1_INS_10SocketCoreEE
libaria2.so.0:_ZN5aria219PeerAbstractCommandC2ElRKSt10shared_ptrINS_4PeerEEPNS_14DownloadEngineERKS1_INS_10SocketCoreEE
libaria2.so.0:_ZN5aria219PeerAbstractCommandD0Ev
libaria2.so.0:_ZN5aria219PeerAbstractCommandD1Ev
libaria2.so.0:_ZN5aria219PeerAbstractCommandD2Ev
libaria2.so.0:_ZN5aria219PeerSessionResource10dhtEnabledEb
libaria2.so.0:_ZN5aria219PeerSessionResource10markSeederEv
libaria2.so.0:_ZN5aria219PeerSessionResource11peerChokingEb
libaria2.so.0:_ZN5aria219PeerSessionResource11reconfigureEil
libaria2.so.0:_ZN5aria219PeerSessionResource11setBitfieldEPKhm
libaria2.so.0:_ZN5aria219PeerSessionResource12addExtensionEih
libaria2.so.0:_ZN5aria219PeerSessionResource12amInterestedEb
libaria2.so.0:_ZN5aria219PeerSessionResource12optUnchokingEb
libaria2.so.0:_ZN5aria219PeerSessionResource14peerInterestedEb
libaria2.so.0:_ZN5aria219PeerSessionResource14updateBitfieldEmi
libaria2.so.0:_ZN5aria219PeerSessionResource14updateDownloadEi
libaria2.so.0:_ZN5aria219PeerSessionResource15chokingRequiredEb
libaria2.so.0:_ZN5aria219PeerSessionResource17addAmAllowedIndexEm
libaria2.so.0:_ZN5aria219PeerSessionResource17updateUploadSpeedEi
libaria2.so.0:_ZN5aria219PeerSessionResource18updateUploadLengthEi
libaria2.so.0:_ZN5aria219PeerSessionResource19addPeerAllowedIndexEm
libaria2.so.0:_ZN5aria219PeerSessionResource20fastExtensionEnabledEb
libaria2.so.0:_ZN5aria219PeerSessionResource22setBtMessageDispatcherEPNS_19BtMessageDispatcherE
libaria2.so.0:_ZN5aria219PeerSessionResource24extendedMessagingEnabledEb
libaria2.so.0:_ZN5aria219PeerSessionResource8snubbingEb
libaria2.so.0:_ZN5aria219PeerSessionResource9amChokingEb
libaria2.so.0:_ZN5aria219PeerSessionResourceC1Eil
libaria2.so.0:_ZN5aria219PeerSessionResourceC2Eil
libaria2.so.0:_ZN5aria219PeerSessionResourceD1Ev
libaria2.so.0:_ZN5aria219PeerSessionResourceD2Ev
libaria2.so.0:_ZN5aria219RarestPieceSelectorC1ERKSt10shared_ptrINS_12PieceStatManEE
libaria2.so.0:_ZN5aria219RarestPieceSelectorC2ERKSt10shared_ptrINS_12PieceStatManEE
libaria2.so.0:_ZN5aria219SftpDownloadCommand21prepareForNextSegmentEv
libaria2.so.0:_ZN5aria219SftpDownloadCommand22shouldEnableWriteCheckEv
libaria2.so.0:_ZN5aria219SftpDownloadCommandC1ElRKSt10shared_ptrINS_7RequestEERKS1_INS_9FileEntryEEPNS_12RequestGroupEPNS_14DownloadEngineERKS1_INS_10SocketCoreEESt10unique_ptrINS_10AuthConfigESt14default_deleteISJ_EE
libaria2.so.0:_ZN5aria219SftpDownloadCommandC2ElRKSt10shared_ptrINS_7RequestEERKS1_INS_9FileEntryEEPNS_12RequestGroupEPNS_14DownloadEngineERKS1_INS_10SocketCoreEESt10unique_ptrINS_10AuthConfigESt14default_deleteISJ_EE
libaria2.so.0:_ZN5aria219SftpDownloadCommandD0Ev
libaria2.so.0:_ZN5aria219SftpDownloadCommandD1Ev
libaria2.so.0:_ZN5aria219SftpDownloadCommandD2Ev
libaria2.so.0:_ZN5aria219Sqlite3CookieParser5parseEv
libaria2.so.0:_ZN5aria219Sqlite3CookieParserC1ERKNSt7__cxx1112basic_stringIcSt11char_traitsIcESaIcEEE
libaria2.so.0:_ZN5aria219Sqlite3CookieParserC2ERKNSt7__cxx1112basic_stringIcSt11char_traitsIcESaIcEEE
libaria2.so.0:_ZN5aria219Sqlite3CookieParserD0Ev
libaria2.so.0:_ZN5aria219Sqlite3CookieParserD1Ev
libaria2.so.0:_ZN5aria219Sqlite3CookieParserD2Ev
libaria2.so.0:_ZN5aria219WatchProcessCommand10preProcessEv
libaria2.so.0:_ZN5aria219WatchProcessCommand7processEv
libaria2.so.0:_ZN5aria219WatchProcessCommandC1ElPNS_14DownloadEngineEjb
libaria2.so.0:_ZN5aria219WatchProcessCommandC2ElPNS_14DownloadEngineEjb
libaria2.so.0:_ZN5aria219idInterestingHeaderEPKc
libaria2.so.0:_ZN5aria219removeOneshotOptionERKSt10shared_ptrINS_6OptionEE
libaria2.so.0:_ZN5aria219strSupportedFeatureEi
libaria2.so.0:_ZN5aria220AbstractAuthResolver14setDefaultCredENSt7__cxx1112basic_stringIcSt11char_traitsIcESaIcEEES6_
libaria2.so.0:_ZN5aria220AbstractAuthResolver18setUserDefinedCredENSt7__cxx1112basic_stringIcSt11char_traitsIcESaIcEEES6_
libaria2.so.0:_ZN5aria220AbstractAuthResolverC1Ev
libaria2.so.0:_ZN5aria220AbstractAuthResolverC2Ev
libaria2.so.0:_ZN5aria220AbstractAuthResolverD0Ev
libaria2.so.0:_ZN5aria220AbstractAuthResolverD1Ev
libaria2.so.0:_ZN5aria220AbstractAuthResolverD2Ev
libaria2.so.0:_ZN5aria220AsyncNameResolverMan10startAsyncERKNSt7__cxx1112basic_stringIcSt11char_traitsIcESaIcEEEPNS_14DownloadEngineEPNS_7CommandE
libaria2.so.0:_ZN5aria220AsyncNameResolverMan16startAsyncFamilyERKNSt7__cxx1112basic_stringIcSt11char_traitsIcESaIcEEEiPNS_14DownloadEngineEPNS_7CommandE
libaria2.so.0:_ZN5aria220AsyncNameResolverMan20setNameResolverCheckEPNS_14DownloadEngineEPNS_7CommandE
libaria2.so.0:_ZN5aria220AsyncNameResolverMan20setNameResolverCheckEmPNS_14DownloadEngineEPNS_7CommandE
libaria2.so.0:_ZN5aria220AsyncNameResolverMan24disableNameResolverCheckEPNS_14DownloadEngineEPNS_7CommandE
libaria2.so.0:_ZN5aria220AsyncNameResolverMan24disableNameResolverCheckEmPNS_14DownloadEngineEPNS_7CommandE
libaria2.so.0:_ZN5aria220AsyncNameResolverMan5resetEPNS_14DownloadEngineEPNS_7CommandE
libaria2.so.0:_ZN5aria220AsyncNameResolverManC1Ev
libaria2.so.0:_ZN5aria220AsyncNameResolverManC2Ev
libaria2.so.0:_ZN5aria220AsyncNameResolverManD1Ev
libaria2.so.0:_ZN5aria220AsyncNameResolverManD2Ev
libaria2.so.0:_ZN5aria220BooleanOptionHandlerC1EPKNS_4PrefEPKcRKNSt7__cxx1112basic_stringIcSt11char_traitsIcESaIcEEENS_13OptionHandler8ARG_TYPEEc
libaria2.so.0:_ZN5aria220BooleanOptionHandlerC2EPKNS_4PrefEPKcRKNSt7__cxx1112basic_stringIcSt11char_traitsIcESaIcEEENS_13OptionHandler8ARG_TYPEEc
libaria2.so.0:_ZN5aria220BooleanOptionHandlerD0Ev
libaria2.so.0:_ZN5aria220BooleanOptionHandlerD1Ev
libaria2.so.0:_ZN5aria220BooleanOptionHandlerD2Ev
libaria2.so.0:_ZN5aria220BtAllowedFastMessage16doReceivedActionEv
libaria2.so.0:_ZN5aria220BtAllowedFastMessage17getProgressUpdateEv
libaria2.so.0:_ZN5aria220BtAllowedFastMessage6createEPKhm
libaria2.so.0:_ZN5aria220BtAllowedFastMessageC1Em
libaria2.so.0:_ZN5aria220BtAllowedFastMessageC2Em
libaria2.so.0:_ZN5aria220CreateRequestCommand15executeInternalEv
libaria2.so.0:_ZN5aria220CreateRequestCommandC1ElPNS_12RequestGroupEPNS_14DownloadEngineE
libaria2.so.0:_ZN5aria220CreateRequestCommandC2ElPNS_12RequestGroupEPNS_14DownloadEngineE
libaria2.so.0:_ZN5aria220DHTBucketRefreshTask15setForceRefreshEb
libaria2.so.0:_ZN5aria220DHTBucketRefreshTask7startupEv
libaria2.so.0:_ZN5aria220DHTBucketRefreshTaskC1Ev
libaria2.so.0:_ZN5aria220DHTBucketRefreshTaskC2Ev
libaria2.so.0:_ZN5aria220DHTBucketRefreshTaskD0Ev
libaria2.so.0:_ZN5aria220DHTBucketRefreshTaskD1Ev
libaria2.so.0:_ZN5aria220DHTBucketRefreshTaskD2Ev
libaria2.so.0:_ZN5aria220DHTPeerAnnounceEntry12notifyUpdateEv
libaria2.so.0:_ZN5aria220DHTPeerAnnounceEntry16addPeerAddrEntryERKNS_13PeerAddrEntryE
libaria2.so.0:_ZN5aria220DHTPeerAnnounceEntry24removeStalePeerAddrEntryERKNSt6chrono8durationIlSt5ratioILl1ELl1EEEE
libaria2.so.0:_ZN5aria220DHTPeerAnnounceEntryC1EPKh
libaria2.so.0:_ZN5aria220DHTPeerAnnounceEntryC2EPKh
libaria2.so.0:_ZN5aria220DHTPeerAnnounceEntryD1Ev
libaria2.so.0:_ZN5aria220DHTPeerAnnounceEntryD2Ev
libaria2.so.0:_ZN5aria220DefaultAuthenticatorC1ENSt7__cxx1112basic_stringIcSt11char_traitsIcESaIcEEES6_S6_
libaria2.so.0:_ZN5aria220DefaultAuthenticatorC1Ev
libaria2.so.0:_ZN5aria220DefaultAuthenticatorC2ENSt7__cxx1112basic_stringIcSt11char_traitsIcESaIcEEES6_S6_
libaria2.so.0:_ZN5aria220DefaultAuthenticatorC2Ev
libaria2.so.0:_ZN5aria220DefaultAuthenticatorD0Ev
libaria2.so.0:_ZN5aria220DefaultAuthenticatorD1Ev
libaria2.so.0:_ZN5aria220DefaultAuthenticatorD2Ev
libaria2.so.0:_ZN5aria220DefaultBtInteractive11addRequestsEv
libaria2.so.0:_ZN5aria220DefaultBtInteractive12setBtRuntimeERKSt10shared_ptrINS_9BtRuntimeEE
libaria2.so.0:_ZN5aria220DefaultBtInteractive12setLocalNodeEPNS_7DHTNodeE
libaria2.so.0:_ZN5aria220DefaultBtInteractive13decideChokingEv
libaria2.so.0:_ZN5aria220DefaultBtInteractive13sendKeepAliveEv
libaria2.so.0:_ZN5aria220DefaultBtInteractive13setDispatcherESt10unique_ptrINS_19BtMessageDispatcherESt14default_deleteIS2_EE
libaria2.so.0:_ZN5aria220DefaultBtInteractive14cancelAllPieceEv
libaria2.so.0:_ZN5aria220DefaultBtInteractive14decideInterestEv
libaria2.so.0:_ZN5aria220DefaultBtInteractive14setPeerStorageERKSt10shared_ptrINS_11PeerStorageEE
libaria2.so.0:_ZN5aria220DefaultBtInteractive15receiveMessagesEv
libaria2.so.0:_ZN5aria220DefaultBtInteractive15setPieceStorageERKSt10shared_ptrINS_12PieceStorageEE
libaria2.so.0:_ZN5aria220DefaultBtInteractive16receiveHandshakeEb
libaria2.so.0:_ZN5aria220DefaultBtInteractive17initiateHandshakeEv
libaria2.so.0:_ZN5aria220DefaultBtInteractive17setPeerConnectionESt10unique_ptrINS_14PeerConnectionESt14default_deleteIS2_EE
libaria2.so.0:_ZN5aria220DefaultBtInteractive18sendPendingMessageEv
libaria2.so.0:_ZN5aria220DefaultBtInteractive18setRequestGroupManEPNS_15RequestGroupManE
libaria2.so.0:_ZN5aria220DefaultBtInteractive19countPendingMessageEv
libaria2.so.0:_ZN5aria220DefaultBtInteractive19setBtMessageFactoryESt10unique_ptrINS_16BtMessageFactoryESt14default_deleteIS2_EE
libaria2.so.0:_ZN5aria220DefaultBtInteractive19setBtRequestFactoryESt10unique_ptrINS_16BtRequestFactoryESt14default_deleteIS2_EE
libaria2.so.0:_ZN5aria220DefaultBtInteractive20setBtMessageReceiverESt10unique_ptrINS_17BtMessageReceiverESt14default_deleteIS2_EE
libaria2.so.0:_ZN5aria220DefaultBtInteractive21addPortMessageToQueueEv
libaria2.so.0:_ZN5aria220DefaultBtInteractive21detectMessageFloodingEv
libaria2.so.0:_ZN5aria220DefaultBtInteractive22addPeerExchangeMessageEv
libaria2.so.0:_ZN5aria220DefaultBtInteractive22checkActiveInteractionEv
libaria2.so.0:_ZN5aria220DefaultBtInteractive23countOutstandingRequestEv
libaria2.so.0:_ZN5aria220DefaultBtInteractive23doInteractionProcessingEv
libaria2.so.0:_ZN5aria220DefaultBtInteractive23receiveAndSendHandshakeEv
libaria2.so.0:_ZN5aria220DefaultBtInteractive25addBitfieldMessageToQueueEv
libaria2.so.0:_ZN5aria220DefaultBtInteractive25doPostHandshakeProcessingEv
libaria2.so.0:_ZN5aria220DefaultBtInteractive26isSendingMessageInProgressEv
libaria2.so.0:_ZN5aria220DefaultBtInteractive26setExtensionMessageFactoryESt10unique_ptrINS_23ExtensionMessageFactoryESt14default_deleteIS2_EE
libaria2.so.0:_ZN5aria220DefaultBtInteractive27setExtensionMessageRegistryESt10unique_ptrINS_24ExtensionMessageRegistryESt14default_deleteIS2_EE
libaria2.so.0:_ZN5aria220DefaultBtInteractive27setUTMetadataRequestFactoryESt10unique_ptrINS_24UTMetadataRequestFactoryESt14default_deleteIS2_EE
libaria2.so.0:_ZN5aria220DefaultBtInteractive27setUTMetadataRequestTrackerESt10unique_ptrINS_24UTMetadataRequestTrackerESt14default_deleteIS2_EE
libaria2.so.0:_ZN5aria220DefaultBtInteractive28addAllowedFastMessageToQueueEv
libaria2.so.0:_ZN5aria220DefaultBtInteractive34addHandshakeExtendedMessageToQueueEv
libaria2.so.0:_ZN5aria220DefaultBtInteractive7setPeerERKSt10shared_ptrINS_4PeerEE
libaria2.so.0:_ZN5aria220DefaultBtInteractive9checkHaveEv
libaria2.so.0:_ZN5aria220DefaultBtInteractive9fillPieceEm
libaria2.so.0:_ZN5aria220DefaultBtInteractiveC1ERKSt10shared_ptrINS_15DownloadContextEERKS1_INS_4PeerEE
libaria2.so.0:_ZN5aria220DefaultBtInteractiveC2ERKSt10shared_ptrINS_15DownloadContextEERKS1_INS_4PeerEE
libaria2.so.0:_ZN5aria220DefaultBtInteractiveD0Ev
libaria2.so.0:_ZN5aria220DefaultBtInteractiveD1Ev
libaria2.so.0:_ZN5aria220DefaultBtInteractiveD2Ev
libaria2.so.0:_ZN5aria220DefaultOptionHandler13setAllowEmptyEb
libaria2.so.0:_ZN5aria220DefaultOptionHandlerC1EPKNS_4PrefEPKcRKNSt7__cxx1112basic_stringIcSt11char_traitsIcESaIcEEESD_NS_13OptionHandler8ARG_TYPEEc
libaria2.so.0:_ZN5aria220DefaultOptionHandlerC2EPKNS_4PrefEPKcRKNSt7__cxx1112basic_stringIcSt11char_traitsIcESaIcEEESD_NS_13OptionHandler8ARG_TYPEEc
libaria2.so.0:_ZN5aria220DefaultOptionHandlerD0Ev
libaria2.so.0:_ZN5aria220DefaultOptionHandlerD1Ev
libaria2.so.0:_ZN5aria220DefaultOptionHandlerD2Ev
libaria2.so.0:_ZN5aria220LpdMessageDispatcher11sendMessageEv
libaria2.so.0:_ZN5aria220LpdMessageDispatcher18resetAnnounceTimerEv
libaria2.so.0:_ZN5aria220LpdMessageDispatcher4initERKNSt7__cxx1112basic_stringIcSt11char_traitsIcESaIcEEEhh
libaria2.so.0:_ZN5aria220LpdMessageDispatcherC1ERKNSt7__cxx1112basic_stringIcSt11char_traitsIcESaIcEEEtS8_tNSt6chrono8durationIlSt5ratioILl1ELl1EEEE
libaria2.so.0:_ZN5aria220LpdMessageDispatcherC2ERKNSt7__cxx1112basic_stringIcSt11char_traitsIcESaIcEEEtS8_tNSt6chrono8durationIlSt5ratioILl1ELl1EEEE
libaria2.so.0:_ZN5aria220LpdMessageDispatcherD1Ev
libaria2.so.0:_ZN5aria220LpdMessageDispatcherD2Ev
libaria2.so.0:_ZN5aria220OptionHandlerFactory20createOptionHandlersEv
libaria2.so.0:_ZN5aria220RecoverableExceptionC1EPKciRKNSt7__cxx1112basic_stringIcSt11char_traitsIcESaIcEEE
libaria2.so.0:_ZN5aria220RecoverableExceptionC1EPKciRKNSt7__cxx1112basic_stringIcSt11char_traitsIcESaIcEEENS_10error_code5ValueE
libaria2.so.0:_ZN5aria220RecoverableExceptionC1EPKciRKNSt7__cxx1112basic_stringIcSt11char_traitsIcESaIcEEENS_10error_code5ValueERKNS_9ExceptionE
libaria2.so.0:_ZN5aria220RecoverableExceptionC1EPKciRKNSt7__cxx1112basic_stringIcSt11char_traitsIcESaIcEEERKNS_9ExceptionE
libaria2.so.0:_ZN5aria220RecoverableExceptionC1EPKciiRKNSt7__cxx1112basic_stringIcSt11char_traitsIcESaIcEEE
libaria2.so.0:_ZN5aria220RecoverableExceptionC1EPKciiRKNSt7__cxx1112basic_stringIcSt11char_traitsIcESaIcEEENS_10error_code5ValueE
libaria2.so.0:_ZN5aria220RecoverableExceptionC2EPKciRKNSt7__cxx1112basic_stringIcSt11char_traitsIcESaIcEEE
libaria2.so.0:_ZN5aria220RecoverableExceptionC2EPKciRKNSt7__cxx1112basic_stringIcSt11char_traitsIcESaIcEEENS_10error_code5ValueE
libaria2.so.0:_ZN5aria220RecoverableExceptionC2EPKciRKNSt7__cxx1112basic_stringIcSt11char_traitsIcESaIcEEENS_10error_code5ValueERKNS_9ExceptionE
libaria2.so.0:_ZN5aria220RecoverableExceptionC2EPKciRKNSt7__cxx1112basic_stringIcSt11char_traitsIcESaIcEEERKNS_9ExceptionE
libaria2.so.0:_ZN5aria220RecoverableExceptionC2EPKciiRKNSt7__cxx1112basic_stringIcSt11char_traitsIcESaIcEEE
libaria2.so.0:_ZN5aria220RecoverableExceptionC2EPKciiRKNSt7__cxx1112basic_stringIcSt11char_traitsIcESaIcEEENS_10error_code5ValueE
libaria2.so.0:_ZN5aria220deleteDownloadHandleEPNS_14DownloadHandleE
libaria2.so.0:_ZN5aria220parseAsyncDNSServersERKNSt7__cxx1112basic_stringIcSt11char_traitsIcESaIcEEE
libaria2.so.0:_ZN5aria221AbstractOptionHandler11updateFlagsEib
libaria2.so.0:_ZN5aria221AbstractOptionHandler13setCumulativeEb
libaria2.so.0:_ZN5aria221AbstractOptionHandler15setChangeOptionEb
libaria2.so.0:_ZN5aria221AbstractOptionHandler16setInitialOptionEb
libaria2.so.0:_ZN5aria221AbstractOptionHandler18setEraseAfterParseEb
libaria2.so.0:_ZN5aria221AbstractOptionHandler21setChangeGlobalOptionEb
libaria2.so.0:_ZN5aria221AbstractOptionHandler26setChangeOptionForReservedEb
libaria2.so.0:_ZN5aria221AbstractOptionHandler4hideEv
libaria2.so.0:_ZN5aria221AbstractOptionHandler6addTagEj
libaria2.so.0:_ZN5aria221AbstractOptionHandlerC1EPKNS_4PrefEPKcRKNSt7__cxx1112basic_stringIcSt11char_traitsIcESaIcEEENS_13OptionHandler8ARG_TYPEEc
libaria2.so.0:_ZN5aria221AbstractOptionHandlerC2EPKNS_4PrefEPKcRKNSt7__cxx1112basic_stringIcSt11char_traitsIcESaIcEEENS_13OptionHandler8ARG_TYPEEc
libaria2.so.0:_ZN5aria221AbstractOptionHandlerD0Ev
libaria2.so.0:_ZN5aria221AbstractOptionHandlerD1Ev
libaria2.so.0:_ZN5aria221AbstractOptionHandlerD2Ev
libaria2.so.0:_ZN5aria221BtCheckIntegrityEntry18onDownloadFinishedERSt6vectorISt10unique_ptrINS_7CommandESt14default_deleteIS3_EESaIS6_EEPNS_14DownloadEngineE
libaria2.so.0:_ZN5aria221BtCheckIntegrityEntry20onDownloadIncompleteERSt6vectorISt10unique_ptrINS_7CommandESt14default_deleteIS3_EESaIS6_EEPNS_14DownloadEngineE
libaria2.so.0:_ZN5aria221BtCheckIntegrityEntryC1EPNS_12RequestGroupE
libaria2.so.0:_ZN5aria221BtCheckIntegrityEntryC2EPNS_12RequestGroupE
libaria2.so.0:_ZN5aria221BtCheckIntegrityEntryD0Ev
libaria2.so.0:_ZN5aria221BtCheckIntegrityEntryD1Ev
libaria2.so.0:_ZN5aria221BtCheckIntegrityEntryD2Ev
libaria2.so.0:_ZN5aria221BtFileAllocationEntry20prepareForNextActionERSt6vectorISt10unique_ptrINS_7CommandESt14default_deleteIS3_EESaIS6_EEPNS_14DownloadEngineE
libaria2.so.0:_ZN5aria221BtFileAllocationEntryC1EPNS_12RequestGroupE
libaria2.so.0:_ZN5aria221BtFileAllocationEntryC2EPNS_12RequestGroupE
libaria2.so.0:_ZN5aria221BtFileAllocationEntryD0Ev
libaria2.so.0:_ZN5aria221BtFileAllocationEntryD1Ev
libaria2.so.0:_ZN5aria221BtFileAllocationEntryD2Ev
libaria2.so.0:_ZN5aria221BtPostDownloadHandlerC1Ev
libaria2.so.0:_ZN5aria221BtPostDownloadHandlerC2Ev
libaria2.so.0:_ZN5aria221BtStopDownloadCommand10preProcessEv
libaria2.so.0:_ZN5aria221BtStopDownloadCommand7processEv
libaria2.so.0:_ZN5aria221BtStopDownloadCommandC1ElPNS_12RequestGroupEPNS_14DownloadEngineENSt6chrono8durationIlSt5ratioILl1ELl1EEEE
libaria2.so.0:_ZN5aria221BtStopDownloadCommandC2ElPNS_12RequestGroupEPNS_14DownloadEngineENSt6chrono8durationIlSt5ratioILl1ELl1EEEE
libaria2.so.0:_ZN5aria221BtSuggestPieceMessage6createEPKhm
libaria2.so.0:_ZN5aria221BtSuggestPieceMessageC1Em
libaria2.so.0:_ZN5aria221BtSuggestPieceMessageC2Em
libaria2.so.0:_ZN5aria221CheckIntegrityCommand15executeInternalEv
libaria2.so.0:_ZN5aria221CheckIntegrityCommand15handleExceptionERNS_9ExceptionE
libaria2.so.0:_ZN5aria221CheckIntegrityCommandC1ElPNS_12RequestGroupEPNS_14DownloadEngineEPNS_19CheckIntegrityEntryE
libaria2.so.0:_ZN5aria221CheckIntegrityCommandC2ElPNS_12RequestGroupEPNS_14DownloadEngineEPNS_19CheckIntegrityEntryE
libaria2.so.0:_ZN5aria221CheckIntegrityCommandD0Ev
libaria2.so.0:_ZN5aria221CheckIntegrityCommandD1Ev
libaria2.so.0:_ZN5aria221CheckIntegrityCommandD2Ev
libaria2.so.0:_ZN5aria221ChecksumOptionHandlerC1EPKNS_4PrefEPKcSt6vectorINSt7__cxx1112basic_stringIcSt11char_traitsIcESaIcEEESaISC_EEc
libaria2.so.0:_ZN5aria221ChecksumOptionHandlerC1EPKNS_4PrefEPKcc
libaria2.so.0:_ZN5aria221ChecksumOptionHandlerC2EPKNS_4PrefEPKcSt6vectorINSt7__cxx1112basic_stringIcSt11char_traitsIcESaIcEEESaISC_EEc
libaria2.so.0:_ZN5aria221ChecksumOptionHandlerC2EPKNS_4PrefEPKcc
libaria2.so.0:_ZN5aria221ChecksumOptionHandlerD0Ev
libaria2.so.0:_ZN5aria221ChecksumOptionHandlerD1Ev
libaria2.so.0:_ZN5aria221ChecksumOptionHandlerD2Ev
libaria2.so.0:_ZN5aria221DHTInteractionCommand12setTaskQueueEPNS_12DHTTaskQueueE
libaria2.so.0:_ZN5aria221DHTInteractionCommand13setConnectionESt10unique_ptrINS_13DHTConnectionESt14default_deleteIS2_EE
libaria2.so.0:_ZN5aria221DHTInteractionCommand18setMessageReceiverEPNS_18DHTMessageReceiverE
libaria2.so.0:_ZN5aria221DHTInteractionCommand18setReadCheckSocketERKSt10shared_ptrINS_10SocketCoreEE
libaria2.so.0:_ZN5aria221DHTInteractionCommand19setUDPTrackerClientERKSt10shared_ptrINS_16UDPTrackerClientEE
libaria2.so.0:_ZN5aria221DHTInteractionCommand20setMessageDispatcherEPNS_20DHTMessageDispatcherE
libaria2.so.0:_ZN5aria221DHTInteractionCommand22disableReadCheckSocketERKSt10shared_ptrINS_10SocketCoreEE
libaria2.so.0:_ZN5aria221DHTInteractionCommand7executeEv
libaria2.so.0:_ZN5aria221DHTInteractionCommandC1ElPNS_14DownloadEngineE
libaria2.so.0:_ZN5aria221DHTInteractionCommandC2ElPNS_14DownloadEngineE
libaria2.so.0:_ZN5aria221DHTInteractionCommandD0Ev
libaria2.so.0:_ZN5aria221DHTInteractionCommandD1Ev
libaria2.so.0:_ZN5aria221DHTInteractionCommandD2Ev
libaria2.so.0:_ZN5aria221DHTMessageFactoryImpl12extractNodesERSt6vectorISt10shared_ptrINS_7DHTNodeEESaIS4_EEPKhm
libaria2.so.0:_ZN5aria221DHTMessageFactoryImpl12setLocalNodeERKSt10shared_ptrINS_7DHTNodeEE
libaria2.so.0:_ZN5aria221DHTMessageFactoryImpl13setBtRegistryEPNS_10BtRegistryE
libaria2.so.0:_ZN5aria221DHTMessageFactoryImpl13setConnectionEPNS_13DHTConnectionE
libaria2.so.0:_ZN5aria221DHTMessageFactoryImpl15setRoutingTableEPNS_15DHTRoutingTableE
libaria2.so.0:_ZN5aria221DHTMessageFactoryImpl15setTokenTrackerEPNS_15DHTTokenTrackerE
libaria2.so.0:_ZN5aria221DHTMessageFactoryImpl17createPingMessageERKSt10shared_ptrINS_7DHTNodeEERKNSt7__cxx1112basic_stringIcSt11char_traitsIcESaIcEEE
libaria2.so.0:_ZN5aria221DHTMessageFactoryImpl17setCommonPropertyEPNS_18DHTAbstractMessageE
libaria2.so.0:_ZN5aria221DHTMessageFactoryImpl18createQueryMessageEPKNS_4DictERKNSt7__cxx1112basic_stringIcSt11char_traitsIcESaIcEEEt
libaria2.so.0:_ZN5aria221DHTMessageFactoryImpl20createUnknownMessageEPKhmRKNSt7__cxx1112basic_stringIcSt11char_traitsIcESaIcEEEt
libaria2.so.0:_ZN5aria221DHTMessageFactoryImpl20setMessageDispatcherEPNS_20DHTMessageDispatcherE
libaria2.so.0:_ZN5aria221DHTMessageFactoryImpl21createFindNodeMessageERKSt10shared_ptrINS_7DHTNodeEEPKhRKNSt7__cxx1112basic_stringIcSt11char_traitsIcESaIcEEE
libaria2.so.0:_ZN5aria221DHTMessageFactoryImpl21createGetPeersMessageERKSt10shared_ptrINS_7DHTNodeEEPKhRKNSt7__cxx1112basic_stringIcSt11char_traitsIcESaIcEEE
libaria2.so.0:_ZN5aria221DHTMessageFactoryImpl21createResponseMessageERKNSt7__cxx1112basic_stringIcSt11char_traitsIcESaIcEEEPKNS_4DictES8_t
libaria2.so.0:_ZN5aria221DHTMessageFactoryImpl22createPingReplyMessageERKSt10shared_ptrINS_7DHTNodeEEPKhRKNSt7__cxx1112basic_stringIcSt11char_traitsIcESaIcEEE
libaria2.so.0:_ZN5aria221DHTMessageFactoryImpl22setPeerAnnounceStorageEPNS_22DHTPeerAnnounceStorageE
libaria2.so.0:_ZN5aria221DHTMessageFactoryImpl25createAnnouncePeerMessageERKSt10shared_ptrINS_7DHTNodeEEPKhtRKNSt7__cxx1112basic_stringIcSt11char_traitsIcESaIcEEESF_
libaria2.so.0:_ZN5aria221DHTMessageFactoryImpl26createFindNodeReplyMessageERKSt10shared_ptrINS_7DHTNodeEEPKNS_4DictERKNSt7__cxx1112basic_stringIcSt11char_traitsIcESaIcEEE
libaria2.so.0:_ZN5aria221DHTMessageFactoryImpl26createFindNodeReplyMessageERKSt10shared_ptrINS_7DHTNodeEESt6vectorIS3_SaIS3_EERKNSt7__cxx1112basic_stringIcSt11char_traitsIcESaIcEEE
libaria2.so.0:_ZN5aria221DHTMessageFactoryImpl26createGetPeersReplyMessageERKSt10shared_ptrINS_7DHTNodeEEPKNS_4DictERKNSt7__cxx1112basic_stringIcSt11char_traitsIcESaIcEEE
libaria2.so.0:_ZN5aria221DHTMessageFactoryImpl26createGetPeersReplyMessageERKSt10shared_ptrINS_7DHTNodeEESt6vectorIS3_SaIS3_EES6_IS1_INS_4PeerEESaISA_EERKNSt7__cxx1112basic_stringIcSt11char_traitsIcESaIcEEESK_
libaria2.so.0:_ZN5aria221DHTMessageFactoryImpl30createAnnouncePeerReplyMessageERKSt10shared_ptrINS_7DHTNodeEERKNSt7__cxx1112basic_stringIcSt11char_traitsIcESaIcEEE
libaria2.so.0:_ZN5aria221DHTMessageFactoryImplC1Ei
libaria2.so.0:_ZN5aria221DHTMessageFactoryImplC2Ei
libaria2.so.0:_ZN5aria221DHTTokenUpdateCommand10preProcessEv
libaria2.so.0:_ZN5aria221DHTTokenUpdateCommand15setTokenTrackerEPNS_15DHTTokenTrackerE
libaria2.so.0:_ZN5aria221DHTTokenUpdateCommand7processEv
libaria2.so.0:_ZN5aria221DHTTokenUpdateCommandC1ElPNS_14DownloadEngineENSt6chrono8durationIlSt5ratioILl1ELl1EEEE
libaria2.so.0:_ZN5aria221DHTTokenUpdateCommandC2ElPNS_14DownloadEngineENSt6chrono8durationIlSt5ratioILl1ELl1EEEE
libaria2.so.0:_ZN5aria221DHTTokenUpdateCommandD0Ev
libaria2.so.0:_ZN5aria221DHTTokenUpdateCommandD1Ev
libaria2.so.0:_ZN5aria221DHTTokenUpdateCommandD2Ev
libaria2.so.0:_ZN5aria221DownloadEngineFactory17newDownloadEngineEPNS_6OptionESt6vectorISt10shared_ptrINS_12RequestGroupEESaIS6_EE
libaria2.so.0:_ZN5aria221DownloadEngineFactoryC1Ev
libaria2.so.0:_ZN5aria221DownloadEngineFactoryC2Ev
libaria2.so.0:_ZN5aria221FileAllocationCommand15executeInternalEv
libaria2.so.0:_ZN5aria221FileAllocationCommand15handleExceptionERNS_9ExceptionE
libaria2.so.0:_ZN5aria221FileAllocationCommandC1ElPNS_12RequestGroupEPNS_14DownloadEngineEPNS_19FileAllocationEntryE
libaria2.so.0:_ZN5aria221FileAllocationCommandC2ElPNS_12RequestGroupEPNS_14DownloadEngineEPNS_19FileAllocationEntryE
libaria2.so.0:_ZN5aria221FileAllocationCommandD0Ev
libaria2.so.0:_ZN5aria221FileAllocationCommandD1Ev
libaria2.so.0:_ZN5aria221FileAllocationCommandD2Ev
libaria2.so.0:_ZN5aria221FtpNegotiationCommand11preparePasvEv
libaria2.so.0:_ZN5aria221FtpNegotiationCommand11preparePortEv
libaria2.so.0:_ZN5aria221FtpNegotiationCommand11sendCwdPrepEv
libaria2.so.0:_ZN5aria221FtpNegotiationCommand12recvGreetingEv
libaria2.so.0:_ZN5aria221FtpNegotiationCommand12resolveProxyEv
libaria2.so.0:_ZN5aria221FtpNegotiationCommand12sendRestPasvERKSt10shared_ptrINS_7SegmentEE
libaria2.so.0:_ZN5aria221FtpNegotiationCommand14waitConnectionEv
libaria2.so.0:_ZN5aria221FtpNegotiationCommand15executeInternalEv
libaria2.so.0:_ZN5aria221FtpNegotiationCommand15processSequenceERKSt10shared_ptrINS_7SegmentEE
libaria2.so.0:_ZN5aria221FtpNegotiationCommand17onDryRunFileFoundEv
libaria2.so.0:_ZN5aria221FtpNegotiationCommand17sendTunnelRequestEv
libaria2.so.0:_ZN5aria221FtpNegotiationCommand18preparePasvConnectEv
libaria2.so.0:_ZN5aria221FtpNegotiationCommand18recvTunnelResponseEv
libaria2.so.0:_ZN5aria221FtpNegotiationCommand19afterFileAllocationEv
libaria2.so.0:_ZN5aria221FtpNegotiationCommand19prepareServerSocketEv
libaria2.so.0:_ZN5aria221FtpNegotiationCommand20onFileSizeDeterminedEl
libaria2.so.0:_ZN5aria221FtpNegotiationCommand23prepareServerSocketEprtEv
libaria2.so.0:_ZN5aria221FtpNegotiationCommand7recvCwdEv
libaria2.so.0:_ZN5aria221FtpNegotiationCommand7recvPwdEv
libaria2.so.0:_ZN5aria221FtpNegotiationCommand7sendCwdEv
libaria2.so.0:_ZN5aria221FtpNegotiationCommand7sendPwdEv
libaria2.so.0:_ZN5aria221FtpNegotiationCommand8recvEprtEv
libaria2.so.0:_ZN5aria221FtpNegotiationCommand8recvEpsvEv
libaria2.so.0:_ZN5aria221FtpNegotiationCommand8recvMdtmEv
libaria2.so.0:_ZN5aria221FtpNegotiationCommand8recvPassEv
libaria2.so.0:_ZN5aria221FtpNegotiationCommand8recvPasvEv
libaria2.so.0:_ZN5aria221FtpNegotiationCommand8recvPortEv
libaria2.so.0:_ZN5aria221FtpNegotiationCommand8recvRestERKSt10shared_ptrINS_7SegmentEE
libaria2.so.0:_ZN5aria221FtpNegotiationCommand8recvRetrEv
libaria2.so.0:_ZN5aria221FtpNegotiationCommand8recvSizeEv
libaria2.so.0:_ZN5aria221FtpNegotiationCommand8recvTypeEv
libaria2.so.0:_ZN5aria221FtpNegotiationCommand8recvUserEv
libaria2.so.0:_ZN5aria221FtpNegotiationCommand8sendEprtEv
libaria2.so.0:_ZN5aria221FtpNegotiationCommand8sendEpsvEv
libaria2.so.0:_ZN5aria221FtpNegotiationCommand8sendMdtmEv
libaria2.so.0:_ZN5aria221FtpNegotiationCommand8sendPassEv
libaria2.so.0:_ZN5aria221FtpNegotiationCommand8sendPasvEv
libaria2.so.0:_ZN5aria221FtpNegotiationCommand8sendPortEv
libaria2.so.0:_ZN5aria221FtpNegotiationCommand8sendRestERKSt10shared_ptrINS_7SegmentEE
libaria2.so.0:_ZN5aria221FtpNegotiationCommand8sendRetrEv
libaria2.so.0:_ZN5aria221FtpNegotiationCommand8sendSizeEv
libaria2.so.0:_ZN5aria221FtpNegotiationCommand8sendTypeEv
libaria2.so.0:_ZN5aria221FtpNegotiationCommand8sendUserEv
libaria2.so.0:_ZN5aria221FtpNegotiationCommandC1ElRKSt10shared_ptrINS_7RequestEERKS1_INS_9FileEntryEEPNS_12RequestGroupEPNS_14DownloadEngineERKS1_INS_10SocketCoreEENS0_3SeqERKNSt7__cxx1112basic_stringIcSt11char_traitsIcESaIcEEE
libaria2.so.0:_ZN5aria221FtpNegotiationCommandC2ElRKSt10shared_ptrINS_7RequestEERKS1_INS_9FileEntryEEPNS_12RequestGroupEPNS_14DownloadEngineERKS1_INS_10SocketCoreEENS0_3SeqERKNSt7__cxx1112basic_stringIcSt11char_traitsIcESaIcEEE
libaria2.so.0:_ZN5aria221FtpNegotiationCommandD0Ev
libaria2.so.0:_ZN5aria221FtpNegotiationCommandD1Ev
libaria2.so.0:_ZN5aria221FtpNegotiationCommandD2Ev
libaria2.so.0:_ZN5aria221HostPortOptionHandlerC1EPKNS_4PrefEPKcRKNSt7__cxx1112basic_stringIcSt11char_traitsIcESaIcEEES3_S3_c
libaria2.so.0:_ZN5aria221HostPortOptionHandlerC2EPKNS_4PrefEPKcRKNSt7__cxx1112basic_stringIcSt11char_traitsIcESaIcEEES3_S3_c
libaria2.so.0:_ZN5aria221HostPortOptionHandlerD0Ev
libaria2.so.0:_ZN5aria221HostPortOptionHandlerD1Ev
libaria2.so.0:_ZN5aria221HostPortOptionHandlerD2Ev
libaria2.so.0:_ZN5aria221HttpServerBodyCommand16updateWriteCheckEv
libaria2.so.0:_ZN5aria221HttpServerBodyCommand19sendJsonRpcResponseERKNS_3rpc11RpcResponseERKNSt7__cxx1112basic_stringIcSt11char_traitsIcESaIcEEE
libaria2.so.0:_ZN5aria221HttpServerBodyCommand24sendJsonRpcBatchResponseERKSt6vectorINS_3rpc11RpcResponseESaIS3_EERKNSt7__cxx1112basic_stringIcSt11char_traitsIcESaIcEEE
libaria2.so.0:_ZN5aria221HttpServerBodyCommand28addHttpServerResponseCommandEb
libaria2.so.0:_ZN5aria221HttpServerBodyCommand7executeEv
libaria2.so.0:_ZN5aria221HttpServerBodyCommandC1ElRKSt10shared_ptrINS_10HttpServerEEPNS_14DownloadEngineERKS1_INS_10SocketCoreEE
libaria2.so.0:_ZN5aria221HttpServerBodyCommandC2ElRKSt10shared_ptrINS_10HttpServerEEPNS_14DownloadEngineERKS1_INS_10SocketCoreEE
libaria2.so.0:_ZN5aria221HttpServerBodyCommandD0Ev
libaria2.so.0:_ZN5aria221HttpServerBodyCommandD1Ev
libaria2.so.0:_ZN5aria221HttpServerBodyCommandD2Ev
libaria2.so.0:_ZN5aria221IndexOutOptionHandlerC1EPKNS_4PrefEPKcc
libaria2.so.0:_ZN5aria221IndexOutOptionHandlerC2EPKNS_4PrefEPKcc
libaria2.so.0:_ZN5aria221IndexOutOptionHandlerD0Ev
libaria2.so.0:_ZN5aria221IndexOutOptionHandlerD1Ev
libaria2.so.0:_ZN5aria221IndexOutOptionHandlerD2Ev
libaria2.so.0:_ZN5aria221Metalink2RequestGroup18createRequestGroupERSt6vectorISt10shared_ptrINS_12RequestGroupEESaIS4_EES1_ISt10unique_ptrINS_13MetalinkEntryESt14default_deleteIS9_EESaISC_EERKS2_INS_6OptionEE
libaria2.so.0:_ZN5aria221Metalink2RequestGroup8generateERSt6vectorISt10shared_ptrINS_12RequestGroupEESaIS4_EERKNSt7__cxx1112basic_stringIcSt11char_traitsIcESaIcEEERKS2_INS_6OptionEESF_
libaria2.so.0:_ZN5aria221Metalink2RequestGroup8generateERSt6vectorISt10shared_ptrINS_12RequestGroupEESaIS4_EERKS2_INS_12BinaryStreamEERKS2_INS_6OptionEERKNSt7__cxx1112basic_stringIcSt11char_traitsIcESaIcEEE
libaria2.so.0:_ZN5aria221Metalink2RequestGroupC1Ev
libaria2.so.0:_ZN5aria221Metalink2RequestGroupC2Ev
libaria2.so.0:_ZN5aria221OSMetalinkParserState10endElementEPNS_26MetalinkParserStateMachineEPKcS4_S4_NSt7__cxx1112basic_stringIcSt11char_traitsIcESaIcEEE
libaria2.so.0:_ZN5aria221PriorityPieceSelectorC1ERKSt10shared_ptrINS_13PieceSelectorEE
libaria2.so.0:_ZN5aria221PriorityPieceSelectorC2ERKSt10shared_ptrINS_13PieceSelectorEE
libaria2.so.0:_ZN5aria221TrackerWatcherCommand12setBtRuntimeERKSt10shared_ptrINS_9BtRuntimeEE
libaria2.so.0:_ZN5aria221TrackerWatcherCommand13addConnectionEv
libaria2.so.0:_ZN5aria221TrackerWatcherCommand13setBtAnnounceERKSt10shared_ptrINS_10BtAnnounceEE
libaria2.so.0:_ZN5aria221TrackerWatcherCommand14createAnnounceEPNS_14DownloadEngineE
libaria2.so.0:_ZN5aria221TrackerWatcherCommand14setPeerStorageERKSt10shared_ptrINS_11PeerStorageEE
libaria2.so.0:_ZN5aria221TrackerWatcherCommand15setPieceStorageERKSt10shared_ptrINS_12PieceStorageEE
libaria2.so.0:_ZN5aria221TrackerWatcherCommand19createUDPAnnRequestERKNSt7__cxx1112basic_stringIcSt11char_traitsIcESaIcEEEtt
libaria2.so.0:_ZN5aria221TrackerWatcherCommand20createHTTPAnnRequestERKNSt7__cxx1112basic_stringIcSt11char_traitsIcESaIcEEE
libaria2.so.0:_ZN5aria221TrackerWatcherCommand7executeEv
libaria2.so.0:_ZN5aria221TrackerWatcherCommandC1ElPNS_12RequestGroupEPNS_14DownloadEngineE
libaria2.so.0:_ZN5aria221TrackerWatcherCommandC2ElPNS_12RequestGroupEPNS_14DownloadEngineE
libaria2.so.0:_ZN5aria221TrackerWatcherCommandD0Ev
libaria2.so.0:_ZN5aria221TrackerWatcherCommandD1Ev
libaria2.so.0:_ZN5aria221TrackerWatcherCommandD2Ev
libaria2.so.0:_ZN5aria221UTPexExtensionMessage10getPayloadB5cxx11Ev
libaria2.so.0:_ZN5aria221UTPexExtensionMessage12addFreshPeerERKSt10shared_ptrINS_4PeerEE
libaria2.so.0:_ZN5aria221UTPexExtensionMessage14addDroppedPeerERKSt10shared_ptrINS_4PeerEE
libaria2.so.0:_ZN5aria221UTPexExtensionMessage14setPeerStorageEPNS_11PeerStorageE
libaria2.so.0:_ZN5aria221UTPexExtensionMessage15setMaxFreshPeerEm
libaria2.so.0:_ZN5aria221UTPexExtensionMessage16doReceivedActionEv
libaria2.so.0:_ZN5aria221UTPexExtensionMessage17setMaxDroppedPeerEm
libaria2.so.0:_ZN5aria221UTPexExtensionMessage28createCompactPeerListAndFlagB5cxx11ERKSt6vectorISt10shared_ptrINS_4PeerEESaIS4_EE
libaria2.so.0:_ZN5aria221UTPexExtensionMessage6createEPKhm
libaria2.so.0:_ZN5aria221UTPexExtensionMessageC1Eh
libaria2.so.0:_ZN5aria221UTPexExtensionMessageC2Eh
libaria2.so.0:_ZN5aria221getMetalinkExtensionsEv
libaria2.so.0:_ZN5aria221getUDPTrackerEventStrEi
libaria2.so.0:_ZN5aria222BtNotInterestedMessage14setPeerStorageEPNS_11PeerStorageE
libaria2.so.0:_ZN5aria222BtNotInterestedMessage16doReceivedActionEv
libaria2.so.0:_ZN5aria222BtNotInterestedMessage6createEPKhm
libaria2.so.0:_ZN5aria222BtNotInterestedMessageC1Ev
libaria2.so.0:_ZN5aria222BtNotInterestedMessageC2Ev
libaria2.so.0:_ZN5aria222BtNotInterestedMessageD0Ev
libaria2.so.0:_ZN5aria222BtNotInterestedMessageD1Ev
libaria2.so.0:_ZN5aria222BtNotInterestedMessageD2Ev
libaria2.so.0:_ZN5aria222DHTAnnouncePeerMessage11getArgumentEv
libaria2.so.0:_ZN5aria222DHTAnnouncePeerMessage15setTokenTrackerEPNS_15DHTTokenTrackerE
libaria2.so.0:_ZN5aria222DHTAnnouncePeerMessage16doReceivedActionEv
libaria2.so.0:_ZN5aria222DHTAnnouncePeerMessage22setPeerAnnounceStorageEPNS_22DHTPeerAnnounceStorageE
libaria2.so.0:_ZN5aria222DHTAnnouncePeerMessageC1ERKSt10shared_ptrINS_7DHTNodeEES5_PKhtRKNSt7__cxx1112basic_stringIcSt11char_traitsIcESaIcEEESF_
libaria2.so.0:_ZN5aria222DHTAnnouncePeerMessageC2ERKSt10shared_ptrINS_7DHTNodeEES5_PKhtRKNSt7__cxx1112basic_stringIcSt11char_traitsIcESaIcEEESF_
libaria2.so.0:_ZN5aria222DHTMessageTrackerEntry11popCallbackEv
libaria2.so.0:_ZN5aria222DHTMessageTrackerEntry13extendTimeoutEv
libaria2.so.0:_ZN5aria222DHTMessageTrackerEntryC1ESt10shared_ptrINS_7DHTNodeEENSt7__cxx1112basic_stringIcSt11char_traitsIcESaIcEEES9_NSt6chrono8durationIlSt5ratioILl1ELl1EEEESt10unique_ptrINS_18DHTMessageCallbackESt14default_deleteISG_EE
libaria2.so.0:_ZN5aria222DHTMessageTrackerEntryC2ESt10shared_ptrINS_7DHTNodeEENSt7__cxx1112basic_stringIcSt11char_traitsIcESaIcEEES9_NSt6chrono8durationIlSt5ratioILl1ELl1EEEESt10unique_ptrINS_18DHTMessageCallbackESt14default_deleteISG_EE
libaria2.so.0:_ZN5aria222DHTPeerAnnounceCommand10preProcessEv
libaria2.so.0:_ZN5aria222DHTPeerAnnounceCommand22setPeerAnnounceStorageEPNS_22DHTPeerAnnounceStorageE
libaria2.so.0:_ZN5aria222DHTPeerAnnounceCommand7processEv
libaria2.so.0:_ZN5aria222DHTPeerAnnounceCommandC1ElPNS_14DownloadEngineENSt6chrono8durationIlSt5ratioILl1ELl1EEEE
libaria2.so.0:_ZN5aria222DHTPeerAnnounceCommandC2ElPNS_14DownloadEngineENSt6chrono8durationIlSt5ratioILl1ELl1EEEE
libaria2.so.0:_ZN5aria222DHTPeerAnnounceCommandD0Ev
libaria2.so.0:_ZN5aria222DHTPeerAnnounceCommandD1Ev
libaria2.so.0:_ZN5aria222DHTPeerAnnounceCommandD2Ev
libaria2.so.0:_ZN5aria222DHTPeerAnnounceStorage12announcePeerEv
libaria2.so.0:_ZN5aria222DHTPeerAnnounceStorage12setTaskQueueEPNS_12DHTTaskQueueE
libaria2.so.0:_ZN5aria222DHTPeerAnnounceStorage13handleTimeoutEv
libaria2.so.0:_ZN5aria222DHTPeerAnnounceStorage14setTaskFactoryEPNS_14DHTTaskFactoryE
libaria2.so.0:_ZN5aria222DHTPeerAnnounceStorage15addPeerAnnounceEPKhRKNSt7__cxx1112basic_stringIcSt11char_traitsIcESaIcEEEt
libaria2.so.0:_ZN5aria222DHTPeerAnnounceStorage20getPeerAnnounceEntryEPKh
libaria2.so.0:_ZN5aria222DHTPeerAnnounceStorage8getPeersERSt6vectorISt10shared_ptrINS_4PeerEESaIS4_EEPKh
libaria2.so.0:_ZN5aria222DHTPeerAnnounceStorageC1Ev
libaria2.so.0:_ZN5aria222DHTPeerAnnounceStorageC2Ev
libaria2.so.0:_ZN5aria222EvictSocketPoolCommand10preProcessEv
libaria2.so.0:_ZN5aria222EvictSocketPoolCommand7processEv
libaria2.so.0:_ZN5aria222EvictSocketPoolCommandC1ElPNS_14DownloadEngineENSt6chrono8durationIlSt5ratioILl1ELl1EEEE
libaria2.so.0:_ZN5aria222EvictSocketPoolCommandC2ElPNS_14DownloadEngineENSt6chrono8durationIlSt5ratioILl1ELl1EEEE
libaria2.so.0:_ZN5aria222EvictSocketPoolCommandD0Ev
libaria2.so.0:_ZN5aria222EvictSocketPoolCommandD1Ev
libaria2.so.0:_ZN5aria222EvictSocketPoolCommandD2Ev
libaria2.so.0:_ZN5aria222HttpProxyOptionHandlerC1EPKNS_4PrefEPKcRKNSt7__cxx1112basic_stringIcSt11char_traitsIcESaIcEEEc
libaria2.so.0:_ZN5aria222HttpProxyOptionHandlerC2EPKNS_4PrefEPKcRKNSt7__cxx1112basic_stringIcSt11char_traitsIcESaIcEEEc
libaria2.so.0:_ZN5aria222HttpProxyOptionHandlerD0Ev
libaria2.so.0:_ZN5aria222HttpProxyOptionHandlerD1Ev
libaria2.so.0:_ZN5aria222HttpProxyOptionHandlerD2Ev
libaria2.so.0:_ZN5aria222OptionHandlerExceptionC1EPKciPKNS_4PrefE
libaria2.so.0:_ZN5aria222OptionHandlerExceptionC1EPKciPKNS_4PrefERKNS_9ExceptionE
libaria2.so.0:_ZN5aria222OptionHandlerExceptionC2EPKciPKNS_4PrefE
libaria2.so.0:_ZN5aria222OptionHandlerExceptionC2EPKciPKNS_4PrefERKNS_9ExceptionE
libaria2.so.0:_ZN5aria222OptionHandlerExceptionD0Ev
libaria2.so.0:_ZN5aria222OptionHandlerExceptionD1Ev
libaria2.so.0:_ZN5aria222OptionHandlerExceptionD2Ev
libaria2.so.0:_ZN5aria222ParameterOptionHandlerC1EPKNS_4PrefEPKcRKNSt7__cxx1112basic_stringIcSt11char_traitsIcESaIcEEESt6vectorISB_SaISB_EEc
libaria2.so.0:_ZN5aria222ParameterOptionHandlerC2EPKNS_4PrefEPKcRKNSt7__cxx1112basic_stringIcSt11char_traitsIcESaIcEEESt6vectorISB_SaISB_EEc
libaria2.so.0:_ZN5aria222ParameterOptionHandlerD0Ev
libaria2.so.0:_ZN5aria222ParameterOptionHandlerD1Ev
libaria2.so.0:_ZN5aria222ParameterOptionHandlerD2Ev
libaria2.so.0:_ZN5aria222PeerInteractionCommand15executeInternalEv
libaria2.so.0:_ZN5aria222PeerInteractionCommand17exitBeforeExecuteEv
libaria2.so.0:_ZN5aria222PeerInteractionCommand18prepareForNextPeerEl
libaria2.so.0:_ZN5aria222PeerInteractionCommand7onAbortEv
libaria2.so.0:_ZN5aria222PeerInteractionCommand9onFailureERKNS_9ExceptionE
libaria2.so.0:_ZN5aria222PeerInteractionCommandC1ElPNS_12RequestGroupERKSt10shared_ptrINS_4PeerEEPNS_14DownloadEngineERKS3_INS_9BtRuntimeEERKS3_INS_12PieceStorageEERKS3_INS_11PeerStorageEERKS3_INS_10SocketCoreEENS0_3SeqESt10unique_ptrINS_14PeerConnectionESt14default_deleteISS_EE
libaria2.so.0:_ZN5aria222PeerInteractionCommandC2ElPNS_12RequestGroupERKSt10shared_ptrINS_4PeerEEPNS_14DownloadEngineERKS3_INS_9BtRuntimeEERKS3_INS_12PieceStorageEERKS3_INS_11PeerStorageEERKS3_INS_10SocketCoreEENS0_3SeqESt10unique_ptrINS_14PeerConnectionESt14default_deleteISS_EE
libaria2.so.0:_ZN5aria222PeerInteractionCommandD0Ev
libaria2.so.0:_ZN5aria222PeerInteractionCommandD1Ev
libaria2.so.0:_ZN5aria222PeerInteractionCommandD2Ev
libaria2.so.0:_ZN5aria222SftpNegotiationCommand15executeInternalEv
libaria2.so.0:_ZN5aria222SftpNegotiationCommand17onDryRunFileFoundEv
libaria2.so.0:_ZN5aria222SftpNegotiationCommand20onFileSizeDeterminedEl
libaria2.so.0:_ZN5aria222SftpNegotiationCommandC1ElRKSt10shared_ptrINS_7RequestEERKS1_INS_9FileEntryEEPNS_12RequestGroupEPNS_14DownloadEngineERKS1_INS_10SocketCoreEENS0_3SeqE
libaria2.so.0:_ZN5aria222SftpNegotiationCommandC2ElRKSt10shared_ptrINS_7RequestEERKS1_INS_9FileEntryEEPNS_12RequestGroupEPNS_14DownloadEngineERKS1_INS_10SocketCoreEENS0_3SeqE
libaria2.so.0:_ZN5aria222SftpNegotiationCommandD0Ev
libaria2.so.0:_ZN5aria222SftpNegotiationCommandD1Ev
libaria2.so.0:_ZN5aria222SftpNegotiationCommandD2Ev
libaria2.so.0:_ZN5aria222ShareRatioSeedCriteria12setBtRuntimeERKSt10shared_ptrINS_9BtRuntimeEE
libaria2.so.0:_ZN5aria222ShareRatioSeedCriteria15setPieceStorageERKSt10shared_ptrINS_12PieceStorageEE
libaria2.so.0:_ZN5aria222ShareRatioSeedCriteria5resetEv
libaria2.so.0:_ZN5aria222ShareRatioSeedCriteria8evaluateEv
libaria2.so.0:_ZN5aria222ShareRatioSeedCriteriaC1EdRKSt10shared_ptrINS_15DownloadContextEE
libaria2.so.0:_ZN5aria222ShareRatioSeedCriteriaC2EdRKSt10shared_ptrINS_15DownloadContextEE
libaria2.so.0:_ZN5aria222ShareRatioSeedCriteriaD0Ev
libaria2.so.0:_ZN5aria222ShareRatioSeedCriteriaD1Ev
libaria2.so.0:_ZN5aria222ShareRatioSeedCriteriaD2Ev
libaria2.so.0:_ZN5aria222Sqlite3MozCookieParserC1ERKNSt7__cxx1112basic_stringIcSt11char_traitsIcESaIcEEE
libaria2.so.0:_ZN5aria222Sqlite3MozCookieParserC2ERKNSt7__cxx1112basic_stringIcSt11char_traitsIcESaIcEEE
libaria2.so.0:_ZN5aria222Sqlite3MozCookieParserD0Ev
libaria2.so.0:_ZN5aria222Sqlite3MozCookieParserD1Ev
libaria2.so.0:_ZN5aria222Sqlite3MozCookieParserD2Ev
libaria2.so.0:_ZN5aria222URLMetalinkParserState10endElementEPNS_26MetalinkParserStateMachineEPKcS4_S4_NSt7__cxx1112basic_stringIcSt11char_traitsIcESaIcEEE
libaria2.so.0:_ZN5aria222UnknownOptionExceptionC1EPKciRKNSt7__cxx1112basic_stringIcSt11char_traitsIcESaIcEEE
libaria2.so.0:_ZN5aria222UnknownOptionExceptionC1EPKciRKNSt7__cxx1112basic_stringIcSt11char_traitsIcESaIcEEERKNS_9ExceptionE
libaria2.so.0:_ZN5aria222UnknownOptionExceptionC2EPKciRKNSt7__cxx1112basic_stringIcSt11char_traitsIcESaIcEEE
libaria2.so.0:_ZN5aria222UnknownOptionExceptionC2EPKciRKNSt7__cxx1112basic_stringIcSt11char_traitsIcESaIcEEERKNS_9ExceptionE
libaria2.so.0:_ZN5aria222UnknownOptionExceptionD0Ev
libaria2.so.0:_ZN5aria222UnknownOptionExceptionD1Ev
libaria2.so.0:_ZN5aria222UnknownOptionExceptionD2Ev
libaria2.so.0:_ZN5aria222getOperatingSystemInfoB5cxx11Ev
libaria2.so.0:_ZN5aria222getUDPTrackerActionStrEi
libaria2.so.0:_ZN5aria223BtPieceMessageValidator8validateEv
libaria2.so.0:_ZN5aria223BtPieceMessageValidatorC1EPKNS_14BtPieceMessageEmi
libaria2.so.0:_ZN5aria223BtPieceMessageValidatorC2EPKNS_14BtPieceMessageEmi
libaria2.so.0:_ZN5aria223BtPieceMessageValidatorD0Ev
libaria2.so.0:_ZN5aria223BtPieceMessageValidatorD1Ev
libaria2.so.0:_ZN5aria223BtPieceMessageValidatorD2Ev
libaria2.so.0:_ZN5aria223CumulativeOptionHandlerC1EPKNS_4PrefEPKcRKNSt7__cxx1112basic_stringIcSt11char_traitsIcESaIcEEESD_SD_NS_13OptionHandler8ARG_TYPEEc
libaria2.so.0:_ZN5aria223CumulativeOptionHandlerC2EPKNS_4PrefEPKcRKNSt7__cxx1112basic_stringIcSt11char_traitsIcESaIcEEESD_SD_NS_13OptionHandler8ARG_TYPEEc
libaria2.so.0:_ZN5aria223CumulativeOptionHandlerD0Ev
libaria2.so.0:_ZN5aria223CumulativeOptionHandlerD1Ev
libaria2.so.0:_ZN5aria223CumulativeOptionHandlerD2Ev
libaria2.so.0:_ZN5aria223DHTBucketRefreshCommand10preProcessEv
libaria2.so.0:_ZN5aria223DHTBucketRefreshCommand12setTaskQueueEPNS_12DHTTaskQueueE
libaria2.so.0:_ZN5aria223DHTBucketRefreshCommand14setTaskFactoryEPNS_14DHTTaskFactoryE
libaria2.so.0:_ZN5aria223DHTBucketRefreshCommand15setRoutingTableEPNS_15DHTRoutingTableE
libaria2.so.0:_ZN5aria223DHTBucketRefreshCommand7processEv
libaria2.so.0:_ZN5aria223DHTBucketRefreshCommandC1ElPNS_14DownloadEngineENSt6chrono8durationIlSt5ratioILl1ELl1EEEE
libaria2.so.0:_ZN5aria223DHTBucketRefreshCommandC2ElPNS_14DownloadEngineENSt6chrono8durationIlSt5ratioILl1ELl1EEEE
libaria2.so.0:_ZN5aria223DHTBucketRefreshCommandD0Ev
libaria2.so.0:_ZN5aria223DHTBucketRefreshCommandD1Ev
libaria2.so.0:_ZN5aria223DHTBucketRefreshCommandD2Ev
libaria2.so.0:_ZN5aria223DHTFindNodeReplyMessage11getResponseEv
libaria2.so.0:_ZN5aria223DHTFindNodeReplyMessage16doReceivedActionEv
libaria2.so.0:_ZN5aria223DHTFindNodeReplyMessage16setClosestKNodesESt6vectorISt10shared_ptrINS_7DHTNodeEESaIS4_EE
libaria2.so.0:_ZN5aria223DHTFindNodeReplyMessage6acceptEPNS_18DHTMessageCallbackE
libaria2.so.0:_ZN5aria223DHTFindNodeReplyMessageC1EiRKSt10shared_ptrINS_7DHTNodeEES5_RKNSt7__cxx1112basic_stringIcSt11char_traitsIcESaIcEEE
libaria2.so.0:_ZN5aria223DHTFindNodeReplyMessageC2EiRKSt10shared_ptrINS_7DHTNodeEES5_RKNSt7__cxx1112basic_stringIcSt11char_traitsIcESaIcEEE
libaria2.so.0:_ZN5aria223DHTGetPeersReplyMessage11getResponseEv
libaria2.so.0:_ZN5aria223DHTGetPeersReplyMessage16doReceivedActionEv
libaria2.so.0:_ZN5aria223DHTGetPeersReplyMessage16setClosestKNodesESt6vectorISt10shared_ptrINS_7DHTNodeEESaIS4_EE
libaria2.so.0:_ZN5aria223DHTGetPeersReplyMessage6acceptEPNS_18DHTMessageCallbackE
libaria2.so.0:_ZN5aria223DHTGetPeersReplyMessage9setValuesESt6vectorISt10shared_ptrINS_4PeerEESaIS4_EE
libaria2.so.0:_ZN5aria223DHTGetPeersReplyMessageC1EiRKSt10shared_ptrINS_7DHTNodeEES5_RKNSt7__cxx1112basic_stringIcSt11char_traitsIcESaIcEEESD_
libaria2.so.0:_ZN5aria223DHTGetPeersReplyMessageC2EiRKSt10shared_ptrINS_7DHTNodeEES5_RKNSt7__cxx1112basic_stringIcSt11char_traitsIcESaIcEEESD_
libaria2.so.0:_ZN5aria223DefaultBtMessageFactory12setLocalNodeEPNS_7DHTNodeE
libaria2.so.0:_ZN5aria223DefaultBtMessageFactory12setTaskQueueEPNS_12DHTTaskQueueE
libaria2.so.0:_ZN5aria223DefaultBtMessageFactory14setPeerStorageEPNS_11PeerStorageE
libaria2.so.0:_ZN5aria223DefaultBtMessageFactory14setTaskFactoryEPNS_14DHTTaskFactoryE
libaria2.so.0:_ZN5aria223DefaultBtMessageFactory15createBtMessageEPKhm
libaria2.so.0:_ZN5aria223DefaultBtMessageFactory15setPieceStorageEPNS_12PieceStorageE
libaria2.so.0:_ZN5aria223DefaultBtMessageFactory15setRoutingTableEPNS_15DHTRoutingTableE
libaria2.so.0:_ZN5aria223DefaultBtMessageFactory17createHaveMessageEm
libaria2.so.0:_ZN5aria223DefaultBtMessageFactory17createPortMessageEt
libaria2.so.0:_ZN5aria223DefaultBtMessageFactory17setCommonPropertyEPNS_17AbstractBtMessageE
libaria2.so.0:_ZN5aria223DefaultBtMessageFactory17setPeerConnectionEPNS_14PeerConnectionE
libaria2.so.0:_ZN5aria223DefaultBtMessageFactory18createChokeMessageEv
libaria2.so.0:_ZN5aria223DefaultBtMessageFactory18createPieceMessageEmii
libaria2.so.0:_ZN5aria223DefaultBtMessageFactory18setDownloadContextEPNS_15DownloadContextE
libaria2.so.0:_ZN5aria223DefaultBtMessageFactory19createCancelMessageEmii
libaria2.so.0:_ZN5aria223DefaultBtMessageFactory19createRejectMessageEmii
libaria2.so.0:_ZN5aria223DefaultBtMessageFactory19setBtRequestFactoryEPNS_16BtRequestFactoryE
libaria2.so.0:_ZN5aria223DefaultBtMessageFactory20createHaveAllMessageEv
libaria2.so.0:_ZN5aria223DefaultBtMessageFactory20createRequestMessageERKSt10shared_ptrINS_5PieceEEm
libaria2.so.0:_ZN5aria223DefaultBtMessageFactory20createUnchokeMessageEv
libaria2.so.0:_ZN5aria223DefaultBtMessageFactory21createBitfieldMessageEv
libaria2.so.0:_ZN5aria223DefaultBtMessageFactory21createHaveNoneMessageEv
libaria2.so.0:_ZN5aria223DefaultBtMessageFactory22createHandshakeMessageEPKhS2_
libaria2.so.0:_ZN5aria223DefaultBtMessageFactory22createHandshakeMessageEPKhm
libaria2.so.0:_ZN5aria223DefaultBtMessageFactory22createKeepAliveMessageEv
libaria2.so.0:_ZN5aria223DefaultBtMessageFactory22setBtMessageDispatcherEPNS_19BtMessageDispatcherE
libaria2.so.0:_ZN5aria223DefaultBtMessageFactory23createBtExtendedMessageESt10unique_ptrINS_16ExtensionMessageESt14default_deleteIS2_EE
libaria2.so.0:_ZN5aria223DefaultBtMessageFactory23createInterestedMessageEv
libaria2.so.0:_ZN5aria223DefaultBtMessageFactory24createAllowedFastMessageEm
libaria2.so.0:_ZN5aria223DefaultBtMessageFactory26createNotInterestedMessageEv
libaria2.so.0:_ZN5aria223DefaultBtMessageFactory26setExtensionMessageFactoryEPNS_23ExtensionMessageFactoryE
libaria2.so.0:_ZN5aria223DefaultBtMessageFactory7setPeerERKSt10shared_ptrINS_4PeerEE
libaria2.so.0:_ZN5aria223DefaultBtMessageFactoryC1Ev
libaria2.so.0:_ZN5aria223DefaultBtMessageFactoryC2Ev
libaria2.so.0:_ZN5aria223DefaultBtRequestFactory14addTargetPieceERKSt10shared_ptrINS_5PieceEE
libaria2.so.0:_ZN5aria223DefaultBtRequestFactory14doChokedActionEv
libaria2.so.0:_ZN5aria223DefaultBtRequestFactory15setPieceStorageEPNS_12PieceStorageE
libaria2.so.0:_ZN5aria223DefaultBtRequestFactory17countMissingBlockEv
libaria2.so.0:_ZN5aria223DefaultBtRequestFactory17removeTargetPieceERKSt10shared_ptrINS_5PieceEE
libaria2.so.0:_ZN5aria223DefaultBtRequestFactory19setBtMessageFactoryEPNS_16BtMessageFactoryE
libaria2.so.0:_ZN5aria223DefaultBtRequestFactory20removeAllTargetPieceEv
libaria2.so.0:_ZN5aria223DefaultBtRequestFactory20removeCompletedPieceEv
libaria2.so.0:_ZN5aria223DefaultBtRequestFactory21createRequestMessagesEmb
libaria2.so.0:_ZN5aria223DefaultBtRequestFactory22setBtMessageDispatcherEPNS_19BtMessageDispatcherE
libaria2.so.0:_ZN5aria223DefaultBtRequestFactory30createRequestMessagesOnEndGameEm
libaria2.so.0:_ZN5aria223DefaultBtRequestFactory7setPeerERKSt10shared_ptrINS_4PeerEE
libaria2.so.0:_ZN5aria223DefaultBtRequestFactoryC1Ev
libaria2.so.0:_ZN5aria223DefaultBtRequestFactoryC2Ev
libaria2.so.0:_ZN5aria223DefaultBtRequestFactoryD0Ev
libaria2.so.0:_ZN5aria223DefaultBtRequestFactoryD1Ev
libaria2.so.0:_ZN5aria223DefaultBtRequestFactoryD2Ev
libaria2.so.0:_ZN5aria223DeprecatedOptionHandler13setCumulativeEb
libaria2.so.0:_ZN5aria223DeprecatedOptionHandler15setChangeOptionEb
libaria2.so.0:_ZN5aria223DeprecatedOptionHandler16setInitialOptionEb
libaria2.so.0:_ZN5aria223DeprecatedOptionHandler18setEraseAfterParseEb
libaria2.so.0:_ZN5aria223DeprecatedOptionHandler21setChangeGlobalOptionEb
libaria2.so.0:_ZN5aria223DeprecatedOptionHandler26setChangeOptionForReservedEb
libaria2.so.0:_ZN5aria223DeprecatedOptionHandler4hideEv
libaria2.so.0:_ZN5aria223DeprecatedOptionHandler6addTagEj
libaria2.so.0:_ZN5aria223DeprecatedOptionHandlerC1EPNS_13OptionHandlerEPKS1_bNSt7__cxx1112basic_stringIcSt11char_traitsIcESaIcEEE
libaria2.so.0:_ZN5aria223DeprecatedOptionHandlerC2EPNS_13OptionHandlerEPKS1_bNSt7__cxx1112basic_stringIcSt11char_traitsIcESaIcEEE
libaria2.so.0:_ZN5aria223DeprecatedOptionHandlerD0Ev
libaria2.so.0:_ZN5aria223DeprecatedOptionHandlerD1Ev
libaria2.so.0:_ZN5aria223DeprecatedOptionHandlerD2Ev
libaria2.so.0:_ZN5aria223FileMetalinkParserState10endElementEPNS_26MetalinkParserStateMachineEPKcS4_S4_NSt7__cxx1112basic_stringIcSt11char_traitsIcESaIcEEE
libaria2.so.0:_ZN5aria223FileMetalinkParserState12beginElementEPNS_26MetalinkParserStateMachineEPKcS4_S4_RKSt6vectorINS_7XmlAttrESaIS6_EE
libaria2.so.0:_ZN5aria223FillRequestGroupCommand7executeEv
libaria2.so.0:_ZN5aria223FillRequestGroupCommandC1ElPNS_14DownloadEngineE
libaria2.so.0:_ZN5aria223FillRequestGroupCommandC2ElPNS_14DownloadEngineE
libaria2.so.0:_ZN5aria223FillRequestGroupCommandD0Ev
libaria2.so.0:_ZN5aria223FillRequestGroupCommandD1Ev
libaria2.so.0:_ZN5aria223FillRequestGroupCommandD2Ev
libaria2.so.0:_ZN5aria223FtpTunnelRequestCommand14getNextCommandEv
libaria2.so.0:_ZN5aria223FtpTunnelRequestCommandC1ElRKSt10shared_ptrINS_7RequestEERKS1_INS_9FileEntryEEPNS_12RequestGroupEPNS_14DownloadEngineES5_RKS1_INS_10SocketCoreEE
libaria2.so.0:_ZN5aria223FtpTunnelRequestCommandC2ElRKSt10shared_ptrINS_7RequestEERKS1_INS_9FileEntryEEPNS_12RequestGroupEPNS_14DownloadEngineES5_RKS1_INS_10SocketCoreEE
libaria2.so.0:_ZN5aria223FtpTunnelRequestCommandD0Ev
libaria2.so.0:_ZN5aria223FtpTunnelRequestCommandD1Ev
libaria2.so.0:_ZN5aria223FtpTunnelRequestCommandD2Ev
libaria2.so.0:_ZN5aria223GeomStreamPieceSelector14onBitfieldInitEv
libaria2.so.0:_ZN5aria223GeomStreamPieceSelector6selectERmmPKhm
libaria2.so.0:_ZN5aria223GeomStreamPieceSelectorC1EPNS_11BitfieldManEd
libaria2.so.0:_ZN5aria223GeomStreamPieceSelectorC2EPNS_11BitfieldManEd
libaria2.so.0:_ZN5aria223GeomStreamPieceSelectorD0Ev
libaria2.so.0:_ZN5aria223GeomStreamPieceSelectorD1Ev
libaria2.so.0:_ZN5aria223GeomStreamPieceSelectorD2Ev
libaria2.so.0:_ZN5aria223HashMetalinkParserState10endElementEPNS_26MetalinkParserStateMachineEPKcS4_S4_NSt7__cxx1112basic_stringIcSt11char_traitsIcESaIcEEE
libaria2.so.0:_ZN5aria223HttpProxyRequestCommand14getNextCommandEv
libaria2.so.0:_ZN5aria223HttpProxyRequestCommandC1ElRKSt10shared_ptrINS_7RequestEERKS1_INS_9FileEntryEEPNS_12RequestGroupEPNS_14DownloadEngineES5_RKS1_INS_10SocketCoreEE
libaria2.so.0:_ZN5aria223HttpProxyRequestCommandC2ElRKSt10shared_ptrINS_7RequestEERKS1_INS_9FileEntryEEPNS_12RequestGroupEPNS_14DownloadEngineES5_RKS1_INS_10SocketCoreEE
libaria2.so.0:_ZN5aria223HttpProxyRequestCommandD0Ev
libaria2.so.0:_ZN5aria223HttpProxyRequestCommandD1Ev
libaria2.so.0:_ZN5aria223HttpProxyRequestCommandD2Ev
libaria2.so.0:_ZN5aria223HttpSkipResponseCommand15executeInternalEv
libaria2.so.0:_ZN5aria223HttpSkipResponseCommand15processResponseEv
libaria2.so.0:_ZN5aria223HttpSkipResponseCommand18disableSocketCheckEv
libaria2.so.0:_ZN5aria223HttpSkipResponseCommand19installStreamFilterESt10unique_ptrINS_12StreamFilterESt14default_deleteIS2_EE
libaria2.so.0:_ZN5aria223HttpSkipResponseCommandC1ElRKSt10shared_ptrINS_7RequestEERKS1_INS_9FileEntryEEPNS_12RequestGroupERKS1_INS_14HttpConnectionEESt10unique_ptrINS_12HttpResponseESt14default_deleteISH_EEPNS_14DownloadEngineERKS1_INS_10SocketCoreEE
libaria2.so.0:_ZN5aria223HttpSkipResponseCommandC2ElRKSt10shared_ptrINS_7RequestEERKS1_INS_9FileEntryEEPNS_12RequestGroupERKS1_INS_14HttpConnectionEESt10unique_ptrINS_12HttpResponseESt14default_deleteISH_EEPNS_14DownloadEngineERKS1_INS_10SocketCoreEE
libaria2.so.0:_ZN5aria223HttpSkipResponseCommandD0Ev
libaria2.so.0:_ZN5aria223HttpSkipResponseCommandD1Ev
libaria2.so.0:_ZN5aria223HttpSkipResponseCommandD2Ev
libaria2.so.0:_ZN5aria223IndexBtMessageValidator8validateEv
libaria2.so.0:_ZN5aria223IndexBtMessageValidatorC1EPKNS_14IndexBtMessageEm
libaria2.so.0:_ZN5aria223IndexBtMessageValidatorC2EPKNS_14IndexBtMessageEm
libaria2.so.0:_ZN5aria223IndexBtMessageValidatorD0Ev
libaria2.so.0:_ZN5aria223IndexBtMessageValidatorD1Ev
libaria2.so.0:_ZN5aria223IndexBtMessageValidatorD2Ev
libaria2.so.0:_ZN5aria223OSMetalinkParserStateV410endElementEPNS_26MetalinkParserStateMachineEPKcS4_S4_NSt7__cxx1112basic_stringIcSt11char_traitsIcESaIcEEE
libaria2.so.0:_ZN5aria223RangeBtMessageValidator8validateEv
libaria2.so.0:_ZN5aria223RangeBtMessageValidatorC1EPKNS_14RangeBtMessageEmi
libaria2.so.0:_ZN5aria223RangeBtMessageValidatorC2EPKNS_14RangeBtMessageEmi
libaria2.so.0:_ZN5aria223RangeBtMessageValidatorD0Ev
libaria2.so.0:_ZN5aria223RangeBtMessageValidatorD1Ev
libaria2.so.0:_ZN5aria223RangeBtMessageValidatorD2Ev
libaria2.so.0:_ZN5aria223SizeMetalinkParserState10endElementEPNS_26MetalinkParserStateMachineEPKcS4_S4_NSt7__cxx1112basic_stringIcSt11char_traitsIcESaIcEEE
libaria2.so.0:_ZN5aria223UnitNumberOptionHandlerC1EPKNS_4PrefEPKcRKNSt7__cxx1112basic_stringIcSt11char_traitsIcESaIcEEEllc
libaria2.so.0:_ZN5aria223UnitNumberOptionHandlerC2EPKNS_4PrefEPKcRKNSt7__cxx1112basic_stringIcSt11char_traitsIcESaIcEEEllc
libaria2.so.0:_ZN5aria223UnitNumberOptionHandlerD0Ev
libaria2.so.0:_ZN5aria223UnitNumberOptionHandlerD1Ev
libaria2.so.0:_ZN5aria223UnitNumberOptionHandlerD2Ev
libaria2.so.0:_ZN5aria223createUDPTrackerConnectEPhmRNSt7__cxx1112basic_stringIcSt11char_traitsIcESaIcEEERtRKSt10shared_ptrINS_17UDPTrackerRequestEE
libaria2.so.0:_ZN5aria223getMetalinkContentTypesEv
libaria2.so.0:_ZN5aria223strContextAttributeTypeENS_20ContextAttributeTypeE
libaria2.so.0:_ZN5aria223usedCompilerAndPlatformB5cxx11Ev
libaria2.so.0:_ZN5aria224Adler32MessageDigestImpl5resetEv
libaria2.so.0:_ZN5aria224Adler32MessageDigestImpl6digestEPh
libaria2.so.0:_ZN5aria224Adler32MessageDigestImpl6lengthEv
libaria2.so.0:_ZN5aria224Adler32MessageDigestImpl6updateEPKvm
libaria2.so.0:_ZN5aria224Adler32MessageDigestImplC1Ev
libaria2.so.0:_ZN5aria224Adler32MessageDigestImplC2Ev
libaria2.so.0:_ZN5aria224BackupIPv4ConnectCommand7executeEv
libaria2.so.0:_ZN5aria224BackupIPv4ConnectCommandC1ElRKNSt7__cxx1112basic_stringIcSt11char_traitsIcESaIcEEEtRKSt10shared_ptrINS_17BackupConnectInfoEEPNS_7CommandEPNS_12RequestGroupEPNS_14DownloadEngineE
libaria2.so.0:_ZN5aria224BackupIPv4ConnectCommandC2ElRKNSt7__cxx1112basic_stringIcSt11char_traitsIcESaIcEEEtRKSt10shared_ptrINS_17BackupConnectInfoEEPNS_7CommandEPNS_12RequestGroupEPNS_14DownloadEngineE
libaria2.so.0:_ZN5aria224BackupIPv4ConnectCommandD0Ev
libaria2.so.0:_ZN5aria224BackupIPv4ConnectCommandD1Ev
libaria2.so.0:_ZN5aria224BackupIPv4ConnectCommandD2Ev
libaria2.so.0:_ZN5aria224DHTMessageDispatcherImpl11sendMessageEPNS_15DHTMessageEntryE
libaria2.so.0:_ZN5aria224DHTMessageDispatcherImpl12sendMessagesEv
libaria2.so.0:_ZN5aria224DHTMessageDispatcherImpl17addMessageToQueueESt10unique_ptrINS_10DHTMessageESt14default_deleteIS2_EENSt6chrono8durationIlSt5ratioILl1ELl1EEEES1_INS_18DHTMessageCallbackES3_ISB_EE
libaria2.so.0:_ZN5aria224DHTMessageDispatcherImpl17addMessageToQueueESt10unique_ptrINS_10DHTMessageESt14default_deleteIS2_EES1_INS_18DHTMessageCallbackES3_IS6_EE
libaria2.so.0:_ZN5aria224DHTMessageDispatcherImplC1ERKSt10shared_ptrINS_17DHTMessageTrackerEE
libaria2.so.0:_ZN5aria224DHTMessageDispatcherImplC2ERKSt10shared_ptrINS_17DHTMessageTrackerEE
libaria2.so.0:_ZN5aria224DefaultBtMessageReceiver13sendHandshakeEv
libaria2.so.0:_ZN5aria224DefaultBtMessageReceiver13setDispatcherEPNS_19BtMessageDispatcherE
libaria2.so.0:_ZN5aria224DefaultBtMessageReceiver14receiveMessageEv
libaria2.so.0:_ZN5aria224DefaultBtMessageReceiver16receiveHandshakeEb
libaria2.so.0:_ZN5aria224DefaultBtMessageReceiver17setPeerConnectionEPNS_14PeerConnectionE
libaria2.so.0:_ZN5aria224DefaultBtMessageReceiver18setDownloadContextEPNS_15DownloadContextE
libaria2.so.0:_ZN5aria224DefaultBtMessageReceiver19setBtMessageFactoryEPNS_16BtMessageFactoryE
libaria2.so.0:_ZN5aria224DefaultBtMessageReceiver23receiveAndSendHandshakeEv
libaria2.so.0:_ZN5aria224DefaultBtMessageReceiverC1Ev
libaria2.so.0:_ZN5aria224DefaultBtMessageReceiverC2Ev
libaria2.so.0:_ZN5aria224DefaultDiskWriterFactory13newDiskWriterERKNSt7__cxx1112basic_stringIcSt11char_traitsIcESaIcEEE
libaria2.so.0:_ZN5aria224DownloadFailureExceptionC1EPKciRKNSt7__cxx1112basic_stringIcSt11char_traitsIcESaIcEEE
libaria2.so.0:_ZN5aria224DownloadFailureExceptionC1EPKciRKNSt7__cxx1112basic_stringIcSt11char_traitsIcESaIcEEENS_10error_code5ValueE
libaria2.so.0:_ZN5aria224DownloadFailureExceptionC1EPKciRKNSt7__cxx1112basic_stringIcSt11char_traitsIcESaIcEEERKNS_9ExceptionE
libaria2.so.0:_ZN5aria224DownloadFailureExceptionC1EPKciiRKNSt7__cxx1112basic_stringIcSt11char_traitsIcESaIcEEENS_10error_code5ValueE
libaria2.so.0:_ZN5aria224DownloadFailureExceptionC2EPKciRKNSt7__cxx1112basic_stringIcSt11char_traitsIcESaIcEEE
libaria2.so.0:_ZN5aria224DownloadFailureExceptionC2EPKciRKNSt7__cxx1112basic_stringIcSt11char_traitsIcESaIcEEENS_10error_code5ValueE
libaria2.so.0:_ZN5aria224DownloadFailureExceptionC2EPKciRKNSt7__cxx1112basic_stringIcSt11char_traitsIcESaIcEEERKNS_9ExceptionE
libaria2.so.0:_ZN5aria224DownloadFailureExceptionC2EPKciiRKNSt7__cxx1112basic_stringIcSt11char_traitsIcESaIcEEENS_10error_code5ValueE
libaria2.so.0:_ZN5aria224ExtensionMessageRegistry13setExtensionsERKSt6vectorIiSaIiEE
libaria2.so.0:_ZN5aria224ExtensionMessageRegistry15removeExtensionEi
libaria2.so.0:_ZN5aria224ExtensionMessageRegistry21setExtensionMessageIDEih
libaria2.so.0:_ZN5aria224ExtensionMessageRegistryC1Ev
libaria2.so.0:_ZN5aria224ExtensionMessageRegistryC2Ev
libaria2.so.0:_ZN5aria224ExtensionMessageRegistryD1Ev
libaria2.so.0:_ZN5aria224ExtensionMessageRegistryD2Ev
libaria2.so.0:_ZN5aria224FilesMetalinkParserState12beginElementEPNS_26MetalinkParserStateMachineEPKcS4_S4_RKSt6vectorINS_7XmlAttrESaIS6_EE
libaria2.so.0:_ZN5aria224FloatNumberOptionHandlerC1EPKNS_4PrefEPKcRKNSt7__cxx1112basic_stringIcSt11char_traitsIcESaIcEEEddc
libaria2.so.0:_ZN5aria224FloatNumberOptionHandlerC2EPKNS_4PrefEPKcRKNSt7__cxx1112basic_stringIcSt11char_traitsIcESaIcEEEddc
libaria2.so.0:_ZN5aria224FloatNumberOptionHandlerD0Ev
libaria2.so.0:_ZN5aria224FloatNumberOptionHandlerD1Ev
libaria2.so.0:_ZN5aria224FloatNumberOptionHandlerD2Ev
libaria2.so.0:_ZN5aria224FtpFinishDownloadCommand15executeInternalEv
libaria2.so.0:_ZN5aria224FtpFinishDownloadCommand7executeEv
libaria2.so.0:_ZN5aria224FtpFinishDownloadCommandC1ElRKSt10shared_ptrINS_7RequestEERKS1_INS_9FileEntryEEPNS_12RequestGroupERKS1_INS_13FtpConnectionEEPNS_14DownloadEngineERKS1_INS_10SocketCoreEE
libaria2.so.0:_ZN5aria224FtpFinishDownloadCommandC2ElRKSt10shared_ptrINS_7RequestEERKS1_INS_9FileEntryEEPNS_12RequestGroupERKS1_INS_13FtpConnectionEEPNS_14DownloadEngineERKS1_INS_10SocketCoreEE
libaria2.so.0:_ZN5aria224FtpFinishDownloadCommandD0Ev
libaria2.so.0:_ZN5aria224FtpFinishDownloadCommandD1Ev
libaria2.so.0:_ZN5aria224FtpFinishDownloadCommandD2Ev
libaria2.so.0:_ZN5aria224FtpTunnelResponseCommand14getNextCommandEv
libaria2.so.0:_ZN5aria224FtpTunnelResponseCommandC1ElRKSt10shared_ptrINS_7RequestEERKS1_INS_9FileEntryEEPNS_12RequestGroupERKS1_INS_14HttpConnectionEEPNS_14DownloadEngineERKS1_INS_10SocketCoreEE
libaria2.so.0:_ZN5aria224FtpTunnelResponseCommandC2ElRKSt10shared_ptrINS_7RequestEERKS1_INS_9FileEntryEEPNS_12RequestGroupERKS1_INS_14HttpConnectionEEPNS_14DownloadEngineERKS1_INS_10SocketCoreEE
libaria2.so.0:_ZN5aria224FtpTunnelResponseCommandD0Ev
libaria2.so.0:_ZN5aria224FtpTunnelResponseCommandD1Ev
libaria2.so.0:_ZN5aria224FtpTunnelResponseCommandD2Ev
libaria2.so.0:_ZN5aria224GZipDecodingStreamFilter4initEv
libaria2.so.0:_ZN5aria224GZipDecodingStreamFilter7releaseEv
libaria2.so.0:_ZN5aria224GZipDecodingStreamFilter8finishedEv
libaria2.so.0:_ZN5aria224GZipDecodingStreamFilter9transformERKSt10shared_ptrINS_12BinaryStreamEERKS1_INS_7SegmentEEPKhm
libaria2.so.0:_ZN5aria224GZipDecodingStreamFilterC1ESt10unique_ptrINS_12StreamFilterESt14default_deleteIS2_EE
libaria2.so.0:_ZN5aria224GZipDecodingStreamFilterC2ESt10unique_ptrINS_12StreamFilterESt14default_deleteIS2_EE
libaria2.so.0:_ZN5aria224GZipDecodingStreamFilterD0Ev
libaria2.so.0:_ZN5aria224GZipDecodingStreamFilterD1Ev
libaria2.so.0:_ZN5aria224GZipDecodingStreamFilterD2Ev
libaria2.so.0:_ZN5aria224HttpProxyResponseCommand14getNextCommandEv
libaria2.so.0:_ZN5aria224HttpProxyResponseCommandC1ElRKSt10shared_ptrINS_7RequestEERKS1_INS_9FileEntryEEPNS_12RequestGroupERKS1_INS_14HttpConnectionEEPNS_14DownloadEngineERKS1_INS_10SocketCoreEE
libaria2.so.0:_ZN5aria224HttpProxyResponseCommandC2ElRKSt10shared_ptrINS_7RequestEERKS1_INS_9FileEntryEEPNS_12RequestGroupERKS1_INS_14HttpConnectionEEPNS_14DownloadEngineERKS1_INS_10SocketCoreEE
libaria2.so.0:_ZN5aria224HttpProxyResponseCommandD0Ev
libaria2.so.0:_ZN5aria224HttpProxyResponseCommandD1Ev
libaria2.so.0:_ZN5aria224HttpProxyResponseCommandD2Ev
libaria2.so.0:_ZN5aria224LpdReceiveMessageCommand7executeEv
libaria2.so.0:_ZN5aria224LpdReceiveMessageCommandC1ElRKSt10shared_ptrINS_18LpdMessageReceiverEEPNS_14DownloadEngineE
libaria2.so.0:_ZN5aria224LpdReceiveMessageCommandC2ElRKSt10shared_ptrINS_18LpdMessageReceiverEEPNS_14DownloadEngineE
libaria2.so.0:_ZN5aria224LpdReceiveMessageCommandD0Ev
libaria2.so.0:_ZN5aria224LpdReceiveMessageCommandD1Ev
libaria2.so.0:_ZN5aria224LpdReceiveMessageCommandD2Ev
libaria2.so.0:_ZN5aria224MetalinkParserController12setOSOfEntryENSt7__cxx1112basic_stringIcSt11char_traitsIcESaIcEEE
libaria2.so.0:_ZN5aria224MetalinkParserController15setURLOfMetaurlENSt7__cxx1112basic_stringIcSt11char_traitsIcESaIcEEE
libaria2.so.0:_ZN5aria224MetalinkParserController16setNameOfMetaurlENSt7__cxx1112basic_stringIcSt11char_traitsIcESaIcEEE
libaria2.so.0:_ZN5aria224MetalinkParserController16setURLOfResourceENSt7__cxx1112basic_stringIcSt11char_traitsIcESaIcEEE
libaria2.so.0:_ZN5aria224MetalinkParserController17setHashOfChecksumENSt7__cxx1112basic_stringIcSt11char_traitsIcESaIcEEE
libaria2.so.0:_ZN5aria224MetalinkParserController17setTypeOfChecksumENSt7__cxx1112basic_stringIcSt11char_traitsIcESaIcEEE
libaria2.so.0:_ZN5aria224MetalinkParserController17setTypeOfResourceENSt7__cxx1112basic_stringIcSt11char_traitsIcESaIcEEE
libaria2.so.0:_ZN5aria224MetalinkParserController17setVersionOfEntryENSt7__cxx1112basic_stringIcSt11char_traitsIcESaIcEEE
libaria2.so.0:_ZN5aria224MetalinkParserController18setBodyOfSignatureENSt7__cxx1112basic_stringIcSt11char_traitsIcESaIcEEE
libaria2.so.0:_ZN5aria224MetalinkParserController18setFileNameOfEntryENSt7__cxx1112basic_stringIcSt11char_traitsIcESaIcEEE
libaria2.so.0:_ZN5aria224MetalinkParserController18setFileOfSignatureENSt7__cxx1112basic_stringIcSt11char_traitsIcESaIcEEE
libaria2.so.0:_ZN5aria224MetalinkParserController18setLanguageOfEntryENSt7__cxx1112basic_stringIcSt11char_traitsIcESaIcEEE
libaria2.so.0:_ZN5aria224MetalinkParserController18setTypeOfSignatureENSt7__cxx1112basic_stringIcSt11char_traitsIcESaIcEEE
libaria2.so.0:_ZN5aria224MetalinkParserController19newEntryTransactionEv
libaria2.so.0:_ZN5aria224MetalinkParserController20setFileLengthOfEntryEl
libaria2.so.0:_ZN5aria224MetalinkParserController20setPriorityOfMetaurlEi
libaria2.so.0:_ZN5aria224MetalinkParserController21newMetaurlTransactionEv
libaria2.so.0:_ZN5aria224MetalinkParserController21setLocationOfResourceENSt7__cxx1112basic_stringIcSt11char_traitsIcESaIcEEE
libaria2.so.0:_ZN5aria224MetalinkParserController21setMediatypeOfMetaurlENSt7__cxx1112basic_stringIcSt11char_traitsIcESaIcEEE
libaria2.so.0:_ZN5aria224MetalinkParserController21setPriorityOfResourceEi
libaria2.so.0:_ZN5aria224MetalinkParserController22addHashOfChunkChecksumEmNSt7__cxx1112basic_stringIcSt11char_traitsIcESaIcEEE
libaria2.so.0:_ZN5aria224MetalinkParserController22addHashOfChunkChecksumEv
libaria2.so.0:_ZN5aria224MetalinkParserController22cancelEntryTransactionEv
libaria2.so.0:_ZN5aria224MetalinkParserController22commitEntryTransactionEv
libaria2.so.0:_ZN5aria224MetalinkParserController22newChecksumTransactionEv
libaria2.so.0:_ZN5aria224MetalinkParserController22newResourceTransactionEv
libaria2.so.0:_ZN5aria224MetalinkParserController22setTypeOfChunkChecksumENSt7__cxx1112basic_stringIcSt11char_traitsIcESaIcEEE
libaria2.so.0:_ZN5aria224MetalinkParserController23newSignatureTransactionEv
libaria2.so.0:_ZN5aria224MetalinkParserController24addHashOfChunkChecksumV4ENSt7__cxx1112basic_stringIcSt11char_traitsIcESaIcEEE
libaria2.so.0:_ZN5aria224MetalinkParserController24cancelMetaurlTransactionEv
libaria2.so.0:_ZN5aria224MetalinkParserController24commitMetaurlTransactionEv
libaria2.so.0:_ZN5aria224MetalinkParserController24setLengthOfChunkChecksumEm
libaria2.so.0:_ZN5aria224MetalinkParserController24setMaxConnectionsOfEntryEi
libaria2.so.0:_ZN5aria224MetalinkParserController24setTypeOfChunkChecksumV4ENSt7__cxx1112basic_stringIcSt11char_traitsIcESaIcEEE
libaria2.so.0:_ZN5aria224MetalinkParserController25cancelChecksumTransactionEv
libaria2.so.0:_ZN5aria224MetalinkParserController25cancelResourceTransactionEv
libaria2.so.0:_ZN5aria224MetalinkParserController25commitChecksumTransactionEv
libaria2.so.0:_ZN5aria224MetalinkParserController25commitResourceTransactionEv
libaria2.so.0:_ZN5aria224MetalinkParserController26cancelSignatureTransactionEv
libaria2.so.0:_ZN5aria224MetalinkParserController26commitSignatureTransactionEv
libaria2.so.0:_ZN5aria224MetalinkParserController26setLengthOfChunkChecksumV4Em
libaria2.so.0:_ZN5aria224MetalinkParserController27newChunkChecksumTransactionEv
libaria2.so.0:_ZN5aria224MetalinkParserController27setMaxConnectionsOfResourceEi
libaria2.so.0:_ZN5aria224MetalinkParserController28createNewHashOfChunkChecksumEm
libaria2.so.0:_ZN5aria224MetalinkParserController29newChunkChecksumTransactionV4Ev
libaria2.so.0:_ZN5aria224MetalinkParserController30cancelChunkChecksumTransactionEv
libaria2.so.0:_ZN5aria224MetalinkParserController30commitChunkChecksumTransactionEv
libaria2.so.0:_ZN5aria224MetalinkParserController31setMessageDigestOfChunkChecksumENSt7__cxx1112basic_stringIcSt11char_traitsIcESaIcEEE
libaria2.so.0:_ZN5aria224MetalinkParserController32cancelChunkChecksumTransactionV4Ev
libaria2.so.0:_ZN5aria224MetalinkParserController32commitChunkChecksumTransactionV4Ev
libaria2.so.0:_ZN5aria224MetalinkParserController5resetEv
libaria2.so.0:_ZN5aria224MetalinkParserController9getResultEv
libaria2.so.0:_ZN5aria224MetalinkParserControllerC1Ev
libaria2.so.0:_ZN5aria224MetalinkParserControllerC2Ev
libaria2.so.0:_ZN5aria224MetalinkParserControllerD1Ev
libaria2.so.0:_ZN5aria224MetalinkParserControllerD2Ev
libaria2.so.0:_ZN5aria224URLMetalinkParserStateV410endElementEPNS_26MetalinkParserStateMachineEPKcS4_S4_NSt7__cxx1112basic_stringIcSt11char_traitsIcESaIcEEE
libaria2.so.0:_ZN5aria224UTMetadataRequestFactory6createEmPNS_12PieceStorageE
libaria2.so.0:_ZN5aria224UTMetadataRequestFactoryC1Ev
libaria2.so.0:_ZN5aria224UTMetadataRequestFactoryC2Ev
libaria2.so.0:_ZN5aria224UTMetadataRequestTracker18removeTimeoutEntryEv
libaria2.so.0:_ZN5aria224UTMetadataRequestTracker3addEm
libaria2.so.0:_ZN5aria224UTMetadataRequestTracker6removeEm
libaria2.so.0:_ZN5aria224UTMetadataRequestTracker6tracksEm
libaria2.so.0:_ZN5aria224UTMetadataRequestTrackerC1Ev
libaria2.so.0:_ZN5aria224UTMetadataRequestTrackerC2Ev
libaria2.so.0:_ZN5aria224createRequestGroupForUriERSt6vectorISt10shared_ptrINS_12RequestGroupEESaIS3_EERKS1_INS_6OptionEERKS0_INSt7__cxx1112basic_stringIcSt11char_traitsIcESaIcEEESaISG_EEbbb
libaria2.so.0:_ZN5aria224createUDPTrackerAnnounceEPhmRNSt7__cxx1112basic_stringIcSt11char_traitsIcESaIcEEERtRKSt10shared_ptrINS_17UDPTrackerRequestEE
libaria2.so.0:_ZN5aria225AbstractSingleDiskAdaptor10enableMmapEv
libaria2.so.0:_ZN5aria225AbstractSingleDiskAdaptor10fileExistsEv
libaria2.so.0:_ZN5aria225AbstractSingleDiskAdaptor10writeCacheEPKNS_16WrDiskCacheEntryE
libaria2.so.0:_ZN5aria225AbstractSingleDiskAdaptor13setDiskWriterESt10unique_ptrINS_10DiskWriterESt14default_deleteIS2_EE
libaria2.so.0:_ZN5aria225AbstractSingleDiskAdaptor14enableReadOnlyEv
libaria2.so.0:_ZN5aria225AbstractSingleDiskAdaptor14flushOSBuffersEv
libaria2.so.0:_ZN5aria225AbstractSingleDiskAdaptor14setTotalLengthEl
libaria2.so.0:_ZN5aria225AbstractSingleDiskAdaptor15disableReadOnlyEv
libaria2.so.0:_ZN5aria225AbstractSingleDiskAdaptor15initAndOpenFileEv
libaria2.so.0:_ZN5aria225AbstractSingleDiskAdaptor16openExistingFileEv
libaria2.so.0:_ZN5aria225AbstractSingleDiskAdaptor17readDataDropCacheEPhml
libaria2.so.0:_ZN5aria225AbstractSingleDiskAdaptor18cutTrailingGarbageEv
libaria2.so.0:_ZN5aria225AbstractSingleDiskAdaptor22fileAllocationIteratorEv
libaria2.so.0:_ZN5aria225AbstractSingleDiskAdaptor4sizeEv
libaria2.so.0:_ZN5aria225AbstractSingleDiskAdaptor8openFileEv
libaria2.so.0:_ZN5aria225AbstractSingleDiskAdaptor8readDataEPhml
libaria2.so.0:_ZN5aria225AbstractSingleDiskAdaptor8truncateEl
libaria2.so.0:_ZN5aria225AbstractSingleDiskAdaptor9closeFileEv
libaria2.so.0:_ZN5aria225AbstractSingleDiskAdaptor9writeDataEPKhml
libaria2.so.0:_ZN5aria225AbstractSingleDiskAdaptorC1Ev
libaria2.so.0:_ZN5aria225AbstractSingleDiskAdaptorC2Ev
libaria2.so.0:_ZN5aria225AbstractSingleDiskAdaptorD0Ev
libaria2.so.0:_ZN5aria225AbstractSingleDiskAdaptorD1Ev
libaria2.so.0:_ZN5aria225AbstractSingleDiskAdaptorD2Ev
libaria2.so.0:_ZN5aria225DHTNodeLookupTaskCallback5visitEPKNS_19DHTPingReplyMessageE
libaria2.so.0:_ZN5aria225DHTNodeLookupTaskCallback5visitEPKNS_23DHTFindNodeReplyMessageE
libaria2.so.0:_ZN5aria225DHTNodeLookupTaskCallback5visitEPKNS_23DHTGetPeersReplyMessageE
libaria2.so.0:_ZN5aria225DHTNodeLookupTaskCallback5visitEPKNS_27DHTAnnouncePeerReplyMessageE
libaria2.so.0:_ZN5aria225DHTNodeLookupTaskCallback9onTimeoutERKSt10shared_ptrINS_7DHTNodeEE
libaria2.so.0:_ZN5aria225DHTNodeLookupTaskCallbackC1EPNS_17DHTNodeLookupTaskE
libaria2.so.0:_ZN5aria225DHTNodeLookupTaskCallbackC2EPNS_17DHTNodeLookupTaskE
libaria2.so.0:_ZN5aria225DHTPeerLookupTaskCallback5visitEPKNS_19DHTPingReplyMessageE
libaria2.so.0:_ZN5aria225DHTPeerLookupTaskCallback5visitEPKNS_23DHTFindNodeReplyMessageE
libaria2.so.0:_ZN5aria225DHTPeerLookupTaskCallback5visitEPKNS_23DHTGetPeersReplyMessageE
libaria2.so.0:_ZN5aria225DHTPeerLookupTaskCallback5visitEPKNS_27DHTAnnouncePeerReplyMessageE
libaria2.so.0:_ZN5aria225DHTPeerLookupTaskCallback9onTimeoutERKSt10shared_ptrINS_7DHTNodeEE
libaria2.so.0:_ZN5aria225DHTPeerLookupTaskCallbackC1EPNS_17DHTPeerLookupTaskE
libaria2.so.0:_ZN5aria225DHTPeerLookupTaskCallbackC2EPNS_17DHTPeerLookupTaskE
libaria2.so.0:_ZN5aria225DHTRoutingTableSerializer12setLocalNodeERKSt10shared_ptrINS_7DHTNodeEE
libaria2.so.0:_ZN5aria225DHTRoutingTableSerializer8setNodesERKSt6vectorISt10shared_ptrINS_7DHTNodeEESaIS4_EE
libaria2.so.0:_ZN5aria225DHTRoutingTableSerializer9serializeERKNSt7__cxx1112basic_stringIcSt11char_traitsIcESaIcEEE
libaria2.so.0:_ZN5aria225DHTRoutingTableSerializerC1Ei
libaria2.so.0:_ZN5aria225DHTRoutingTableSerializerC2Ei
libaria2.so.0:_ZN5aria225DHTRoutingTableSerializerD1Ev
libaria2.so.0:_ZN5aria225DHTRoutingTableSerializerD2Ev
libaria2.so.0:_ZN5aria225DefaultBtProgressInfoFile10removeFileEv
libaria2.so.0:_ZN5aria225DefaultBtProgressInfoFile12setBtRuntimeERKSt10shared_ptrINS_9BtRuntimeEE
libaria2.so.0:_ZN5aria225DefaultBtProgressInfoFile14setPeerStorageERKSt10shared_ptrINS_11PeerStorageEE
libaria2.so.0:_ZN5aria225DefaultBtProgressInfoFile14updateFilenameEv
libaria2.so.0:_ZN5aria225DefaultBtProgressInfoFile17isTorrentDownloadEv
libaria2.so.0:_ZN5aria225DefaultBtProgressInfoFile4loadEv
libaria2.so.0:_ZN5aria225DefaultBtProgressInfoFile4saveERNS_6IOFileE
libaria2.so.0:_ZN5aria225DefaultBtProgressInfoFile4saveEv
libaria2.so.0:_ZN5aria225DefaultBtProgressInfoFile6existsEv
libaria2.so.0:_ZN5aria225DefaultBtProgressInfoFileC1ERKSt10shared_ptrINS_15DownloadContextEERKS1_INS_12PieceStorageEEPKNS_6OptionE
libaria2.so.0:_ZN5aria225DefaultBtProgressInfoFileC2ERKSt10shared_ptrINS_15DownloadContextEERKS1_INS_12PieceStorageEEPKNS_6OptionE
libaria2.so.0:_ZN5aria225DefaultBtProgressInfoFileD0Ev
libaria2.so.0:_ZN5aria225DefaultBtProgressInfoFileD1Ev
libaria2.so.0:_ZN5aria225DefaultBtProgressInfoFileD2Ev
libaria2.so.0:_ZN5aria225FileMetalinkParserStateV410endElementEPNS_26MetalinkParserStateMachineEPKcS4_S4_NSt7__cxx1112basic_stringIcSt11char_traitsIcESaIcEEE
libaria2.so.0:_ZN5aria225FileMetalinkParserStateV412beginElementEPNS_26MetalinkParserStateMachineEPKcS4_S4_RKSt6vectorINS_7XmlAttrESaIS6_EE
libaria2.so.0:_ZN5aria225HandshakeExtensionMessage10getPayloadB5cxx11Ev
libaria2.so.0:_ZN5aria225HandshakeExtensionMessage12setExtensionEih
libaria2.so.0:_ZN5aria225HandshakeExtensionMessage13setExtensionsERKSt6vectorIiSaIiEE
libaria2.so.0:_ZN5aria225HandshakeExtensionMessage16doReceivedActionEv
libaria2.so.0:_ZN5aria225HandshakeExtensionMessage6createEPKhm
libaria2.so.0:_ZN5aria225HandshakeExtensionMessage7setPeerERKSt10shared_ptrINS_4PeerEE
libaria2.so.0:_ZN5aria225HandshakeExtensionMessageC1Ev
libaria2.so.0:_ZN5aria225HandshakeExtensionMessageC2Ev
libaria2.so.0:_ZN5aria225HashMetalinkParserStateV410endElementEPNS_26MetalinkParserStateMachineEPKcS4_S4_NSt7__cxx1112basic_stringIcSt11char_traitsIcESaIcEEE
libaria2.so.0:_ZN5aria225HttpServerResponseCommand9afterSendERKSt10shared_ptrINS_10HttpServerEEPNS_14DownloadEngineE
libaria2.so.0:_ZN5aria225HttpServerResponseCommandC1ElRKSt10shared_ptrINS_10HttpServerEEPNS_14DownloadEngineERKS1_INS_10SocketCoreEE
libaria2.so.0:_ZN5aria225HttpServerResponseCommandC2ElRKSt10shared_ptrINS_10HttpServerEEPNS_14DownloadEngineERKS1_INS_10SocketCoreEE
libaria2.so.0:_ZN5aria225HttpServerResponseCommandD0Ev
libaria2.so.0:_ZN5aria225HttpServerResponseCommandD1Ev
libaria2.so.0:_ZN5aria225HttpServerResponseCommandD2Ev
libaria2.so.0:_ZN5aria225InitiateConnectionCommand15executeInternalEv
libaria2.so.0:_ZN5aria225InitiateConnectionCommand20setConnectedAddrInfoERKSt10shared_ptrINS_7RequestEERKNSt7__cxx1112basic_stringIcSt11char_traitsIcESaIcEEERKS1_INS_10SocketCoreEE
libaria2.so.0:_ZN5aria225InitiateConnectionCommand21setupBackupConnectionERKNSt7__cxx1112basic_stringIcSt11char_traitsIcESaIcEEES8_tPNS_14ConnectCommandE
libaria2.so.0:_ZN5aria225InitiateConnectionCommand30createBackupIPv4ConnectCommandERKNSt7__cxx1112basic_stringIcSt11char_traitsIcESaIcEEES8_tPNS_7CommandE
libaria2.so.0:_ZN5aria225InitiateConnectionCommandC1ElRKSt10shared_ptrINS_7RequestEERKS1_INS_9FileEntryEEPNS_12RequestGroupEPNS_14DownloadEngineE
libaria2.so.0:_ZN5aria225InitiateConnectionCommandC2ElRKSt10shared_ptrINS_7RequestEERKS1_INS_9FileEntryEEPNS_12RequestGroupEPNS_14DownloadEngineE
libaria2.so.0:_ZN5aria225InitiateConnectionCommandD0Ev
libaria2.so.0:_ZN5aria225InitiateConnectionCommandD1Ev
libaria2.so.0:_ZN5aria225InitiateConnectionCommandD2Ev
libaria2.so.0:_ZN5aria225IntegerRangeOptionHandlerC1EPKNS_4PrefEPKcRKNSt7__cxx1112basic_stringIcSt11char_traitsIcESaIcEEEiic
libaria2.so.0:_ZN5aria225IntegerRangeOptionHandlerC2EPKNS_4PrefEPKcRKNSt7__cxx1112basic_stringIcSt11char_traitsIcESaIcEEEiic
libaria2.so.0:_ZN5aria225IntegerRangeOptionHandlerD0Ev
libaria2.so.0:_ZN5aria225IntegerRangeOptionHandlerD1Ev
libaria2.so.0:_ZN5aria225IntegerRangeOptionHandlerD2Ev
libaria2.so.0:_ZN5aria225LpdDispatchMessageCommand7executeEv
libaria2.so.0:_ZN5aria225LpdDispatchMessageCommandC1ElRKSt10shared_ptrINS_20LpdMessageDispatcherEEPNS_14DownloadEngineE
libaria2.so.0:_ZN5aria225LpdDispatchMessageCommandC2ElRKSt10shared_ptrINS_20LpdMessageDispatcherEEPNS_14DownloadEngineE
libaria2.so.0:_ZN5aria225LpdDispatchMessageCommandD0Ev
libaria2.so.0:_ZN5aria225LpdDispatchMessageCommandD1Ev
libaria2.so.0:_ZN5aria225LpdDispatchMessageCommandD2Ev
libaria2.so.0:_ZN5aria225PiecesMetalinkParserState10endElementEPNS_26MetalinkParserStateMachineEPKcS4_S4_NSt7__cxx1112basic_stringIcSt11char_traitsIcESaIcEEE
libaria2.so.0:_ZN5aria225PiecesMetalinkParserState12beginElementEPNS_26MetalinkParserStateMachineEPKcS4_S4_RKSt6vectorINS_7XmlAttrESaIS6_EE
libaria2.so.0:_ZN5aria225RandomStreamPieceSelector14onBitfieldInitEv
libaria2.so.0:_ZN5aria225RandomStreamPieceSelector6selectERmmPKhm
libaria2.so.0:_ZN5aria225RandomStreamPieceSelectorC1EPNS_11BitfieldManE
libaria2.so.0:_ZN5aria225RandomStreamPieceSelectorC2EPNS_11BitfieldManE
libaria2.so.0:_ZN5aria225RandomStreamPieceSelectorD0Ev
libaria2.so.0:_ZN5aria225RandomStreamPieceSelectorD1Ev
libaria2.so.0:_ZN5aria225RandomStreamPieceSelectorD2Ev
libaria2.so.0:_ZN5aria225SftpFinishDownloadCommand15executeInternalEv
libaria2.so.0:_ZN5aria225SftpFinishDownloadCommand7executeEv
libaria2.so.0:_ZN5aria225SftpFinishDownloadCommandC1ElRKSt10shared_ptrINS_7RequestEERKS1_INS_9FileEntryEEPNS_12RequestGroupEPNS_14DownloadEngineERKS1_INS_10SocketCoreEE
libaria2.so.0:_ZN5aria225SftpFinishDownloadCommandC2ElRKSt10shared_ptrINS_7RequestEERKS1_INS_9FileEntryEEPNS_12RequestGroupEPNS_14DownloadEngineERKS1_INS_10SocketCoreEE
libaria2.so.0:_ZN5aria225SftpFinishDownloadCommandD0Ev
libaria2.so.0:_ZN5aria225SftpFinishDownloadCommandD1Ev
libaria2.so.0:_ZN5aria225SftpFinishDownloadCommandD2Ev
libaria2.so.0:_ZN5aria225SizeMetalinkParserStateV410endElementEPNS_26MetalinkParserStateMachineEPKcS4_S4_NSt7__cxx1112basic_stringIcSt11char_traitsIcESaIcEEE
libaria2.so.0:_ZN5aria225StreamCheckIntegrityEntry18onDownloadFinishedERSt6vectorISt10unique_ptrINS_7CommandESt14default_deleteIS3_EESaIS6_EEPNS_14DownloadEngineE
libaria2.so.0:_ZN5aria225StreamCheckIntegrityEntry20onDownloadIncompleteERSt6vectorISt10unique_ptrINS_7CommandESt14default_deleteIS3_EESaIS6_EEPNS_14DownloadEngineE
libaria2.so.0:_ZN5aria225StreamCheckIntegrityEntryC1EPNS_12RequestGroupESt10unique_ptrINS_7CommandESt14default_deleteIS4_EE
libaria2.so.0:_ZN5aria225StreamCheckIntegrityEntryC2EPNS_12RequestGroupESt10unique_ptrINS_7CommandESt14default_deleteIS4_EE
libaria2.so.0:_ZN5aria225StreamCheckIntegrityEntryD0Ev
libaria2.so.0:_ZN5aria225StreamCheckIntegrityEntryD1Ev
libaria2.so.0:_ZN5aria225StreamCheckIntegrityEntryD2Ev
libaria2.so.0:_ZN5aria225StreamFileAllocationEntry20prepareForNextActionERSt6vectorISt10unique_ptrINS_7CommandESt14default_deleteIS3_EESaIS6_EEPNS_14DownloadEngineE
libaria2.so.0:_ZN5aria225StreamFileAllocationEntryC1EPNS_12RequestGroupESt10unique_ptrINS_7CommandESt14default_deleteIS4_EE
libaria2.so.0:_ZN5aria225StreamFileAllocationEntryC2EPNS_12RequestGroupESt10unique_ptrINS_7CommandESt14default_deleteIS4_EE
libaria2.so.0:_ZN5aria225StreamFileAllocationEntryD0Ev
libaria2.so.0:_ZN5aria225StreamFileAllocationEntryD1Ev
libaria2.so.0:_ZN5aria225StreamFileAllocationEntryD2Ev
libaria2.so.0:_ZN5aria225UnknownLengthPieceStorage11cancelPieceERKSt10shared_ptrINS_5PieceEEl
libaria2.so.0:_ZN5aria225UnknownLengthPieceStorage11getBitfieldEv
libaria2.so.0:_ZN5aria225UnknownLengthPieceStorage11initStorageEv
libaria2.so.0:_ZN5aria225UnknownLengthPieceStorage11isPieceUsedEm
libaria2.so.0:_ZN5aria225UnknownLengthPieceStorage13completePieceERKSt10shared_ptrINS_5PieceEE
libaria2.so.0:_ZN5aria225UnknownLengthPieceStorage14createBitfieldEv
libaria2.so.0:_ZN5aria225UnknownLengthPieceStorage14getDiskAdaptorEv
libaria2.so.0:_ZN5aria225UnknownLengthPieceStorage14getPieceLengthEm
libaria2.so.0:_ZN5aria225UnknownLengthPieceStorage14markPiecesDoneEl
libaria2.so.0:_ZN5aria225UnknownLengthPieceStorage15getMissingPieceERKSt10shared_ptrINS_4PeerEERKSt6vectorImSaImEEl
libaria2.so.0:_ZN5aria225UnknownLengthPieceStorage15getMissingPieceERKSt10shared_ptrINS_4PeerEEl
libaria2.so.0:_ZN5aria225UnknownLengthPieceStorage15getMissingPieceERSt6vectorISt10shared_ptrINS_5PieceEESaIS4_EEmRKS2_INS_4PeerEERKS1_ImSaImEEl
libaria2.so.0:_ZN5aria225UnknownLengthPieceStorage15getMissingPieceERSt6vectorISt10shared_ptrINS_5PieceEESaIS4_EEmRKS2_INS_4PeerEEl
libaria2.so.0:_ZN5aria225UnknownLengthPieceStorage15getMissingPieceEmPKhml
libaria2.so.0:_ZN5aria225UnknownLengthPieceStorage15getMissingPieceEml
libaria2.so.0:_ZN5aria225UnknownLengthPieceStorage15hasMissingPieceERKSt10shared_ptrINS_4PeerEE
libaria2.so.0:_ZN5aria225UnknownLengthPieceStorage16markPieceMissingEm
libaria2.so.0:_ZN5aria225UnknownLengthPieceStorage17getBitfieldLengthEv
libaria2.so.0:_ZN5aria225UnknownLengthPieceStorage17getInFlightPiecesERSt6vectorISt10shared_ptrINS_5PieceEESaIS4_EE
libaria2.so.0:_ZN5aria225UnknownLengthPieceStorage17markAllPiecesDoneEv
libaria2.so.0:_ZN5aria225UnknownLengthPieceStorage18getCompletedLengthEv
libaria2.so.0:_ZN5aria225UnknownLengthPieceStorage19getMissingFastPieceERSt6vectorISt10shared_ptrINS_5PieceEESaIS4_EEmRKS2_INS_4PeerEERKS1_ImSaImEEl
libaria2.so.0:_ZN5aria225UnknownLengthPieceStorage19getMissingFastPieceERSt6vectorISt10shared_ptrINS_5PieceEESaIS4_EEmRKS2_INS_4PeerEEl
libaria2.so.0:_ZN5aria225UnknownLengthPieceStorage20setDiskWriterFactoryERKSt10shared_ptrINS_17DiskWriterFactoryEE
libaria2.so.0:_ZN5aria225UnknownLengthPieceStorage21hasMissingUnusedPieceEv
libaria2.so.0:_ZN5aria225UnknownLengthPieceStorage8getPieceEm
libaria2.so.0:_ZN5aria225UnknownLengthPieceStorage8hasPieceEm
libaria2.so.0:_ZN5aria225UnknownLengthPieceStorageC1ERKSt10shared_ptrINS_15DownloadContextEE
libaria2.so.0:_ZN5aria225UnknownLengthPieceStorageC2ERKSt10shared_ptrINS_15DownloadContextEE
libaria2.so.0:_ZN5aria225UnknownLengthPieceStorageD0Ev
libaria2.so.0:_ZN5aria225UnknownLengthPieceStorageD1Ev
libaria2.so.0:_ZN5aria225UnknownLengthPieceStorageD2Ev
libaria2.so.0:_ZN5aria226BtBitfieldMessageValidator8validateEv
libaria2.so.0:_ZN5aria226BtBitfieldMessageValidatorC1EPKNS_17BtBitfieldMessageEm
libaria2.so.0:_ZN5aria226BtBitfieldMessageValidatorC2EPKNS_17BtBitfieldMessageEm
libaria2.so.0:_ZN5aria226BtBitfieldMessageValidatorD0Ev
libaria2.so.0:_ZN5aria226BtBitfieldMessageValidatorD1Ev
libaria2.so.0:_ZN5aria226BtBitfieldMessageValidatorD2Ev
libaria2.so.0:_ZN5aria226DefaultBtMessageDispatcher12sendMessagesEv
libaria2.so.0:_ZN5aria226DefaultBtMessageDispatcher14doChokedActionEv
libaria2.so.0:_ZN5aria226DefaultBtMessageDispatcher15doChokingActionEv
libaria2.so.0:_ZN5aria226DefaultBtMessageDispatcher17addMessageToQueueESt10unique_ptrINS_9BtMessageESt14default_deleteIS2_EE
libaria2.so.0:_ZN5aria226DefaultBtMessageDispatcher18setDownloadContextEPNS_15DownloadContextE
libaria2.so.0:_ZN5aria226DefaultBtMessageDispatcher18setRequestGroupManEPNS_15RequestGroupManE
libaria2.so.0:_ZN5aria226DefaultBtMessageDispatcher19isSendingInProgressEv
libaria2.so.0:_ZN5aria226DefaultBtMessageDispatcher19setBtMessageFactoryEPNS_16BtMessageFactoryE
libaria2.so.0:_ZN5aria226DefaultBtMessageDispatcher20isOutstandingRequestEmm
libaria2.so.0:_ZN5aria226DefaultBtMessageDispatcher20sendMessagesInternalEv
libaria2.so.0:_ZN5aria226DefaultBtMessageDispatcher21addOutstandingRequestESt10unique_ptrINS_11RequestSlotESt14default_deleteIS2_EE
libaria2.so.0:_ZN5aria226DefaultBtMessageDispatcher21getOutstandingRequestEmii
libaria2.so.0:_ZN5aria226DefaultBtMessageDispatcher22countOutstandingUploadEv
libaria2.so.0:_ZN5aria226DefaultBtMessageDispatcher24removeOutstandingRequestEPKNS_11RequestSlotE
libaria2.so.0:_ZN5aria226DefaultBtMessageDispatcher26doCancelSendingPieceActionERKSt10shared_ptrINS_5PieceEE
libaria2.so.0:_ZN5aria226DefaultBtMessageDispatcher26doCancelSendingPieceActionEmii
libaria2.so.0:_ZN5aria226DefaultBtMessageDispatcher31doAbortOutstandingRequestActionERKSt10shared_ptrINS_5PieceEE
libaria2.so.0:_ZN5aria226DefaultBtMessageDispatcher35checkRequestSlotAndDoNecessaryThingEv
libaria2.so.0:_ZN5aria226DefaultBtMessageDispatcher7setPeerERKSt10shared_ptrINS_4PeerEE
libaria2.so.0:_ZN5aria226DefaultBtMessageDispatcherC1Ev
libaria2.so.0:_ZN5aria226DefaultBtMessageDispatcherC2Ev
libaria2.so.0:_ZN5aria226DefaultBtMessageDispatcherD0Ev
libaria2.so.0:_ZN5aria226DefaultBtMessageDispatcherD1Ev
libaria2.so.0:_ZN5aria226DefaultBtMessageDispatcherD2Ev
libaria2.so.0:_ZN5aria226DefaultStreamPieceSelector14onBitfieldInitEv
libaria2.so.0:_ZN5aria226DefaultStreamPieceSelector6selectERmmPKhm
libaria2.so.0:_ZN5aria226DefaultStreamPieceSelectorC1EPNS_11BitfieldManE
libaria2.so.0:_ZN5aria226DefaultStreamPieceSelectorC2EPNS_11BitfieldManE
libaria2.so.0:_ZN5aria226DefaultStreamPieceSelectorD0Ev
libaria2.so.0:_ZN5aria226DefaultStreamPieceSelectorD1Ev
libaria2.so.0:_ZN5aria226DefaultStreamPieceSelectorD2Ev
libaria2.so.0:_ZN5aria226InitialMetalinkParserState12beginElementEPNS_26MetalinkParserStateMachineEPKcS4_S4_RKSt6vectorINS_7XmlAttrESaIS6_EE
libaria2.so.0:_ZN5aria226InorderStreamPieceSelector14onBitfieldInitEv
libaria2.so.0:_ZN5aria226InorderStreamPieceSelector6selectERmmPKhm
libaria2.so.0:_ZN5aria226InorderStreamPieceSelectorC1EPNS_11BitfieldManE
libaria2.so.0:_ZN5aria226InorderStreamPieceSelectorC2EPNS_11BitfieldManE
libaria2.so.0:_ZN5aria226InorderStreamPieceSelectorD0Ev
libaria2.so.0:_ZN5aria226InorderStreamPieceSelectorD1Ev
libaria2.so.0:_ZN5aria226InorderStreamPieceSelectorD2Ev
libaria2.so.0:_ZN5aria226LocalFilePathOptionHandlerC1EPKNS_4PrefEPKcRKNSt7__cxx1112basic_stringIcSt11char_traitsIcESaIcEEEbcbSD_
libaria2.so.0:_ZN5aria226LocalFilePathOptionHandlerC2EPKNS_4PrefEPKcRKNSt7__cxx1112basic_stringIcSt11char_traitsIcESaIcEEEbcbSD_
libaria2.so.0:_ZN5aria226MetalinkParserStateMachine10endElementEPKcS2_S2_NSt7__cxx1112basic_stringIcSt11char_traitsIcESaIcEEE
libaria2.so.0:_ZN5aria226MetalinkParserStateMachine10setBaseUriENSt7__cxx1112basic_stringIcSt11char_traitsIcESaIcEEE
libaria2.so.0:_ZN5aria226MetalinkParserStateMachine10setOSStateEv
libaria2.so.0:_ZN5aria226MetalinkParserStateMachine11setURLStateEv
libaria2.so.0:_ZN5aria226MetalinkParserStateMachine12beginElementEPKcS2_S2_RKSt6vectorINS_7XmlAttrESaIS4_EE
libaria2.so.0:_ZN5aria226MetalinkParserStateMachine12setFileStateEv
libaria2.so.0:_ZN5aria226MetalinkParserStateMachine12setHashStateEv
libaria2.so.0:_ZN5aria226MetalinkParserStateMachine12setOSOfEntryENSt7__cxx1112basic_stringIcSt11char_traitsIcESaIcEEE
libaria2.so.0:_ZN5aria226MetalinkParserStateMachine12setOSStateV4Ev
libaria2.so.0:_ZN5aria226MetalinkParserStateMachine12setSizeStateEv
libaria2.so.0:_ZN5aria226MetalinkParserStateMachine13setFilesStateEv
libaria2.so.0:_ZN5aria226MetalinkParserStateMachine13setURLStateV4Ev
libaria2.so.0:_ZN5aria226MetalinkParserStateMachine14setFileStateV4Ev
libaria2.so.0:_ZN5aria226MetalinkParserStateMachine14setHashStateV4Ev
libaria2.so.0:_ZN5aria226MetalinkParserStateMachine14setPiecesStateEv
libaria2.so.0:_ZN5aria226MetalinkParserStateMachine14setSizeStateV4Ev
libaria2.so.0:_ZN5aria226MetalinkParserStateMachine15setSkipTagStateEv
libaria2.so.0:_ZN5aria226MetalinkParserStateMachine15setURLOfMetaurlENSt7__cxx1112basic_stringIcSt11char_traitsIcESaIcEEE
libaria2.so.0:_ZN5aria226MetalinkParserStateMachine15setVersionStateEv
libaria2.so.0:_ZN5aria226MetalinkParserStateMachine16setLanguageStateEv
libaria2.so.0:_ZN5aria226MetalinkParserStateMachine16setMetalinkStateEv
libaria2.so.0:_ZN5aria226MetalinkParserStateMachine16setNameOfMetaurlENSt7__cxx1112basic_stringIcSt11char_traitsIcESaIcEEE
libaria2.so.0:_ZN5aria226MetalinkParserStateMachine16setPiecesStateV4Ev
libaria2.so.0:_ZN5aria226MetalinkParserStateMachine16setURLOfResourceENSt7__cxx1112basic_stringIcSt11char_traitsIcESaIcEEE
libaria2.so.0:_ZN5aria226MetalinkParserStateMachine17setHashOfChecksumENSt7__cxx1112basic_stringIcSt11char_traitsIcESaIcEEE
libaria2.so.0:_ZN5aria226MetalinkParserStateMachine17setMetaurlStateV4Ev
libaria2.so.0:_ZN5aria226MetalinkParserStateMachine17setPieceHashStateEv
libaria2.so.0:_ZN5aria226MetalinkParserStateMachine17setResourcesStateEv
libaria2.so.0:_ZN5aria226MetalinkParserStateMachine17setSignatureStateEv
libaria2.so.0:_ZN5aria226MetalinkParserStateMachine17setTypeOfChecksumENSt7__cxx1112basic_stringIcSt11char_traitsIcESaIcEEE
libaria2.so.0:_ZN5aria226MetalinkParserStateMachine17setTypeOfResourceENSt7__cxx1112basic_stringIcSt11char_traitsIcESaIcEEE
libaria2.so.0:_ZN5aria226MetalinkParserStateMachine17setVersionOfEntryENSt7__cxx1112basic_stringIcSt11char_traitsIcESaIcEEE
libaria2.so.0:_ZN5aria226MetalinkParserStateMachine17setVersionStateV4Ev
libaria2.so.0:_ZN5aria226MetalinkParserStateMachine18setBodyOfSignatureENSt7__cxx1112basic_stringIcSt11char_traitsIcESaIcEEE
libaria2.so.0:_ZN5aria226MetalinkParserStateMachine18setFileNameOfEntryENSt7__cxx1112basic_stringIcSt11char_traitsIcESaIcEEE
libaria2.so.0:_ZN5aria226MetalinkParserStateMachine18setFileOfSignatureENSt7__cxx1112basic_stringIcSt11char_traitsIcESaIcEEE
libaria2.so.0:_ZN5aria226MetalinkParserStateMachine18setLanguageOfEntryENSt7__cxx1112basic_stringIcSt11char_traitsIcESaIcEEE
libaria2.so.0:_ZN5aria226MetalinkParserStateMachine18setLanguageStateV4Ev
libaria2.so.0:_ZN5aria226MetalinkParserStateMachine18setMetalinkStateV4Ev
libaria2.so.0:_ZN5aria226MetalinkParserStateMachine18setTypeOfSignatureENSt7__cxx1112basic_stringIcSt11char_traitsIcESaIcEEE
libaria2.so.0:_ZN5aria226MetalinkParserStateMachine19newEntryTransactionEv
libaria2.so.0:_ZN5aria226MetalinkParserStateMachine19setPieceHashStateV4Ev
libaria2.so.0:_ZN5aria226MetalinkParserStateMachine19setSignatureStateV4Ev
libaria2.so.0:_ZN5aria226MetalinkParserStateMachine20setFileLengthOfEntryEl
libaria2.so.0:_ZN5aria226MetalinkParserStateMachine20setPriorityOfMetaurlEi
libaria2.so.0:_ZN5aria226MetalinkParserStateMachine20setVerificationStateEv
libaria2.so.0:_ZN5aria226MetalinkParserStateMachine21newMetaurlTransactionEv
libaria2.so.0:_ZN5aria226MetalinkParserStateMachine21setLocationOfResourceENSt7__cxx1112basic_stringIcSt11char_traitsIcESaIcEEE
libaria2.so.0:_ZN5aria226MetalinkParserStateMachine21setMediatypeOfMetaurlENSt7__cxx1112basic_stringIcSt11char_traitsIcESaIcEEE
libaria2.so.0:_ZN5aria226MetalinkParserStateMachine21setPriorityOfResourceEi
libaria2.so.0:_ZN5aria226MetalinkParserStateMachine22addHashOfChunkChecksumEv
libaria2.so.0:_ZN5aria226MetalinkParserStateMachine22cancelEntryTransactionEv
libaria2.so.0:_ZN5aria226MetalinkParserStateMachine22commitEntryTransactionEv
libaria2.so.0:_ZN5aria226MetalinkParserStateMachine22newChecksumTransactionEv
libaria2.so.0:_ZN5aria226MetalinkParserStateMachine22newResourceTransactionEv
libaria2.so.0:_ZN5aria226MetalinkParserStateMachine22setTypeOfChunkChecksumENSt7__cxx1112basic_stringIcSt11char_traitsIcESaIcEEE
libaria2.so.0:_ZN5aria226MetalinkParserStateMachine23newSignatureTransactionEv
libaria2.so.0:_ZN5aria226MetalinkParserStateMachine24addHashOfChunkChecksumV4ENSt7__cxx1112basic_stringIcSt11char_traitsIcESaIcEEE
libaria2.so.0:_ZN5aria226MetalinkParserStateMachine24cancelMetaurlTransactionEv
libaria2.so.0:_ZN5aria226MetalinkParserStateMachine24commitMetaurlTransactionEv
libaria2.so.0:_ZN5aria226MetalinkParserStateMachine24setLengthOfChunkChecksumEm
libaria2.so.0:_ZN5aria226MetalinkParserStateMachine24setMaxConnectionsOfEntryEi
libaria2.so.0:_ZN5aria226MetalinkParserStateMachine24setTypeOfChunkChecksumV4ENSt7__cxx1112basic_stringIcSt11char_traitsIcESaIcEEE
libaria2.so.0:_ZN5aria226MetalinkParserStateMachine25cancelChecksumTransactionEv
libaria2.so.0:_ZN5aria226MetalinkParserStateMachine25cancelResourceTransactionEv
libaria2.so.0:_ZN5aria226MetalinkParserStateMachine25commitChecksumTransactionEv
libaria2.so.0:_ZN5aria226MetalinkParserStateMachine25commitResourceTransactionEv
libaria2.so.0:_ZN5aria226MetalinkParserStateMachine26cancelSignatureTransactionEv
libaria2.so.0:_ZN5aria226MetalinkParserStateMachine26commitSignatureTransactionEv
libaria2.so.0:_ZN5aria226MetalinkParserStateMachine26setLengthOfChunkChecksumV4Em
libaria2.so.0:_ZN5aria226MetalinkParserStateMachine27newChunkChecksumTransactionEv
libaria2.so.0:_ZN5aria226MetalinkParserStateMachine27setMaxConnectionsOfResourceEi
libaria2.so.0:_ZN5aria226MetalinkParserStateMachine28createNewHashOfChunkChecksumEm
libaria2.so.0:_ZN5aria226MetalinkParserStateMachine29newChunkChecksumTransactionV4Ev
libaria2.so.0:_ZN5aria226MetalinkParserStateMachine30cancelChunkChecksumTransactionEv
libaria2.so.0:_ZN5aria226MetalinkParserStateMachine30commitChunkChecksumTransactionEv
libaria2.so.0:_ZN5aria226MetalinkParserStateMachine31setMessageDigestOfChunkChecksumENSt7__cxx1112basic_stringIcSt11char_traitsIcESaIcEEE
libaria2.so.0:_ZN5aria226MetalinkParserStateMachine32cancelChunkChecksumTransactionV4Ev
libaria2.so.0:_ZN5aria226MetalinkParserStateMachine32commitChunkChecksumTransactionV4Ev
libaria2.so.0:_ZN5aria226MetalinkParserStateMachine5resetEv
libaria2.so.0:_ZN5aria226MetalinkParserStateMachine8logErrorENSt7__cxx1112basic_stringIcSt11char_traitsIcESaIcEEE
libaria2.so.0:_ZN5aria226MetalinkParserStateMachine9getResultEv
libaria2.so.0:_ZN5aria226MetalinkParserStateMachineC1Ev
libaria2.so.0:_ZN5aria226MetalinkParserStateMachineC2Ev
libaria2.so.0:_ZN5aria226MetalinkParserStateMachineD0Ev
libaria2.so.0:_ZN5aria226MetalinkParserStateMachineD1Ev
libaria2.so.0:_ZN5aria226MetalinkParserStateMachineD2Ev
libaria2.so.0:_ZN5aria226SkipTagMetalinkParserState12beginElementEPNS_26MetalinkParserStateMachineEPKcS4_S4_RKSt6vectorINS_7XmlAttrESaIS6_EE
libaria2.so.0:_ZN5aria226UTMetadataExtensionMessageC1Eh
libaria2.so.0:_ZN5aria226UTMetadataExtensionMessageC2Eh
libaria2.so.0:_ZN5aria226VersionMetalinkParserState10endElementEPNS_26MetalinkParserStateMachineEPKcS4_S4_NSt7__cxx1112basic_stringIcSt11char_traitsIcESaIcEEE
libaria2.so.0:_ZN5aria227AbstractProxyRequestCommand15executeInternalEv
libaria2.so.0:_ZN5aria227AbstractProxyRequestCommandC1ElRKSt10shared_ptrINS_7RequestEERKS1_INS_9FileEntryEEPNS_12RequestGroupEPNS_14DownloadEngineES5_RKS1_INS_10SocketCoreEE
libaria2.so.0:_ZN5aria227AbstractProxyRequestCommandC2ElRKSt10shared_ptrINS_7RequestEERKS1_INS_9FileEntryEEPNS_12RequestGroupEPNS_14DownloadEngineES5_RKS1_INS_10SocketCoreEE
libaria2.so.0:_ZN5aria227AbstractProxyRequestCommandD0Ev
libaria2.so.0:_ZN5aria227AbstractProxyRequestCommandD1Ev
libaria2.so.0:_ZN5aria227AbstractProxyRequestCommandD2Ev
libaria2.so.0:_ZN5aria227ActivePeerConnectionCommand12setBtRuntimeERKSt10shared_ptrINS_9BtRuntimeEE
libaria2.so.0:_ZN5aria227ActivePeerConnectionCommand13setBtAnnounceERKSt10shared_ptrINS_10BtAnnounceEE
libaria2.so.0:_ZN5aria227ActivePeerConnectionCommand14setPeerStorageERKSt10shared_ptrINS_11PeerStorageEE
libaria2.so.0:_ZN5aria227ActivePeerConnectionCommand15setPieceStorageERKSt10shared_ptrINS_12PieceStorageEE
libaria2.so.0:_ZN5aria227ActivePeerConnectionCommand18makeNewConnectionsEi
libaria2.so.0:_ZN5aria227ActivePeerConnectionCommand7executeEv
libaria2.so.0:_ZN5aria227ActivePeerConnectionCommandC1ElPNS_12RequestGroupEPNS_14DownloadEngineENSt6chrono8durationIlSt5ratioILl1ELl1EEEE
libaria2.so.0:_ZN5aria227ActivePeerConnectionCommandC2ElPNS_12RequestGroupEPNS_14DownloadEngineENSt6chrono8durationIlSt5ratioILl1ELl1EEEE
libaria2.so.0:_ZN5aria227ActivePeerConnectionCommandD0Ev
libaria2.so.0:_ZN5aria227ActivePeerConnectionCommandD1Ev
libaria2.so.0:_ZN5aria227ActivePeerConnectionCommandD2Ev
libaria2.so.0:_ZN5aria227BtHandshakeMessageValidator8validateEv
libaria2.so.0:_ZN5aria227BtHandshakeMessageValidatorC1EPKNS_18BtHandshakeMessageEPKh
libaria2.so.0:_ZN5aria227BtHandshakeMessageValidatorC2EPKNS_18BtHandshakeMessageEPKh
libaria2.so.0:_ZN5aria227BtHandshakeMessageValidatorD0Ev
libaria2.so.0:_ZN5aria227BtHandshakeMessageValidatorD1Ev
libaria2.so.0:_ZN5aria227BtHandshakeMessageValidatorD2Ev
libaria2.so.0:_ZN5aria227ChecksumCheckIntegrityEntry13initValidatorEv
libaria2.so.0:_ZN5aria227ChecksumCheckIntegrityEntry17isValidationReadyEv
libaria2.so.0:_ZN5aria227ChecksumCheckIntegrityEntry18onDownloadFinishedERSt6vectorISt10unique_ptrINS_7CommandESt14default_deleteIS3_EESaIS6_EEPNS_14DownloadEngineE
libaria2.so.0:_ZN5aria227ChecksumCheckIntegrityEntry20onDownloadIncompleteERSt6vectorISt10unique_ptrINS_7CommandESt14default_deleteIS3_EESaIS6_EEPNS_14DownloadEngineE
libaria2.so.0:_ZN5aria227ChecksumCheckIntegrityEntryC1EPNS_12RequestGroupESt10unique_ptrINS_7CommandESt14default_deleteIS4_EE
libaria2.so.0:_ZN5aria227ChecksumCheckIntegrityEntryC2EPNS_12RequestGroupESt10unique_ptrINS_7CommandESt14default_deleteIS4_EE
libaria2.so.0:_ZN5aria227ChecksumCheckIntegrityEntryD0Ev
libaria2.so.0:_ZN5aria227ChecksumCheckIntegrityEntryD1Ev
libaria2.so.0:_ZN5aria227ChecksumCheckIntegrityEntryD2Ev
libaria2.so.0:_ZN5aria227ChunkedDecodingStreamFilter4initEv
libaria2.so.0:_ZN5aria227ChunkedDecodingStreamFilter7releaseEv
libaria2.so.0:_ZN5aria227ChunkedDecodingStreamFilter8finishedEv
libaria2.so.0:_ZN5aria227ChunkedDecodingStreamFilter9transformERKSt10shared_ptrINS_12BinaryStreamEERKS1_INS_7SegmentEEPKhm
libaria2.so.0:_ZN5aria227ChunkedDecodingStreamFilterC1ESt10unique_ptrINS_12StreamFilterESt14default_deleteIS2_EE
libaria2.so.0:_ZN5aria227ChunkedDecodingStreamFilterC2ESt10unique_ptrINS_12StreamFilterESt14default_deleteIS2_EE
libaria2.so.0:_ZN5aria227ChunkedDecodingStreamFilterD0Ev
libaria2.so.0:_ZN5aria227ChunkedDecodingStreamFilterD1Ev
libaria2.so.0:_ZN5aria227ChunkedDecodingStreamFilterD2Ev
libaria2.so.0:_ZN5aria227DHTAnnouncePeerReplyMessage11getResponseEv
libaria2.so.0:_ZN5aria227DHTAnnouncePeerReplyMessage16doReceivedActionEv
libaria2.so.0:_ZN5aria227DHTAnnouncePeerReplyMessage6acceptEPNS_18DHTMessageCallbackE
libaria2.so.0:_ZN5aria227DHTAnnouncePeerReplyMessageC1ERKSt10shared_ptrINS_7DHTNodeEES5_RKNSt7__cxx1112basic_stringIcSt11char_traitsIcESaIcEEE
libaria2.so.0:_ZN5aria227DHTAnnouncePeerReplyMessageC2ERKSt10shared_ptrINS_7DHTNodeEES5_RKNSt7__cxx1112basic_stringIcSt11char_traitsIcESaIcEEE
libaria2.so.0:_ZN5aria227DHTAnnouncePeerReplyMessageD0Ev
libaria2.so.0:_ZN5aria227DHTAnnouncePeerReplyMessageD1Ev
libaria2.so.0:_ZN5aria227DHTAnnouncePeerReplyMessageD2Ev
libaria2.so.0:_ZN5aria227DHTRoutingTableDeserializer11deserializeERKNSt7__cxx1112basic_stringIcSt11char_traitsIcESaIcEEE
libaria2.so.0:_ZN5aria227DHTRoutingTableDeserializerC1Ei
libaria2.so.0:_ZN5aria227DHTRoutingTableDeserializerC2Ei
libaria2.so.0:_ZN5aria227DHTRoutingTableDeserializerD1Ev
libaria2.so.0:_ZN5aria227DHTRoutingTableDeserializerD2Ev
libaria2.so.0:_ZN5aria227IteratableChecksumValidator13validateChunkEv
libaria2.so.0:_ZN5aria227IteratableChecksumValidator4initEv
libaria2.so.0:_ZN5aria227IteratableChecksumValidatorC1ERKSt10shared_ptrINS_15DownloadContextEERKS1_INS_12PieceStorageEE
libaria2.so.0:_ZN5aria227IteratableChecksumValidatorC2ERKSt10shared_ptrINS_15DownloadContextEERKS1_INS_12PieceStorageEE
libaria2.so.0:_ZN5aria227IteratableChecksumValidatorD0Ev
libaria2.so.0:_ZN5aria227IteratableChecksumValidatorD1Ev
libaria2.so.0:_ZN5aria227IteratableChecksumValidatorD2Ev
libaria2.so.0:_ZN5aria227LanguageMetalinkParserState10endElementEPNS_26MetalinkParserStateMachineEPKcS4_S4_NSt7__cxx1112basic_stringIcSt11char_traitsIcESaIcEEE
libaria2.so.0:_ZN5aria227MetalinkMetalinkParserState12beginElementEPNS_26MetalinkParserStateMachineEPKcS4_S4_RKSt6vectorINS_7XmlAttrESaIS6_EE
libaria2.so.0:_ZN5aria227MetalinkPostDownloadHandlerC1Ev
libaria2.so.0:_ZN5aria227MetalinkPostDownloadHandlerC2Ev
libaria2.so.0:_ZN5aria227MultiFileAllocationIterator13allocateChunkEv
libaria2.so.0:_ZN5aria227MultiFileAllocationIterator14getTotalLengthEv
libaria2.so.0:_ZN5aria227MultiFileAllocationIterator16getCurrentLengthEv
libaria2.so.0:_ZN5aria227MultiFileAllocationIterator8finishedEv
libaria2.so.0:_ZN5aria227MultiFileAllocationIteratorC1EPNS_16MultiDiskAdaptorE
libaria2.so.0:_ZN5aria227MultiFileAllocationIteratorC2EPNS_16MultiDiskAdaptorE
libaria2.so.0:_ZN5aria227MultiFileAllocationIteratorD0Ev
libaria2.so.0:_ZN5aria227MultiFileAllocationIteratorD1Ev
libaria2.so.0:_ZN5aria227MultiFileAllocationIteratorD2Ev
libaria2.so.0:_ZN5aria227PeerReceiveHandshakeCommand15executeInternalEv
libaria2.so.0:_ZN5aria227PeerReceiveHandshakeCommand17exitBeforeExecuteEv
libaria2.so.0:_ZN5aria227PeerReceiveHandshakeCommandC1ElRKSt10shared_ptrINS_4PeerEEPNS_14DownloadEngineERKS1_INS_10SocketCoreEESt10unique_ptrINS_14PeerConnectionESt14default_deleteISD_EE
libaria2.so.0:_ZN5aria227PeerReceiveHandshakeCommandC2ElRKSt10shared_ptrINS_4PeerEEPNS_14DownloadEngineERKS1_INS_10SocketCoreEESt10unique_ptrINS_14PeerConnectionESt14default_deleteISD_EE
libaria2.so.0:_ZN5aria227PeerReceiveHandshakeCommandD0Ev
libaria2.so.0:_ZN5aria227PeerReceiveHandshakeCommandD1Ev
libaria2.so.0:_ZN5aria227PeerReceiveHandshakeCommandD2Ev
libaria2.so.0:_ZN5aria227PiecesMetalinkParserStateV410endElementEPNS_26MetalinkParserStateMachineEPKcS4_S4_NSt7__cxx1112basic_stringIcSt11char_traitsIcESaIcEEE
libaria2.so.0:_ZN5aria227PiecesMetalinkParserStateV412beginElementEPNS_26MetalinkParserStateMachineEPKcS4_S4_RKSt6vectorINS_7XmlAttrESaIS6_EE
libaria2.so.0:_ZN5aria227ReceiverMSEHandshakeCommand13createCommandEv
libaria2.so.0:_ZN5aria227ReceiverMSEHandshakeCommand15executeInternalEv
libaria2.so.0:_ZN5aria227ReceiverMSEHandshakeCommand17exitBeforeExecuteEv
libaria2.so.0:_ZN5aria227ReceiverMSEHandshakeCommandC1ElRKSt10shared_ptrINS_4PeerEEPNS_14DownloadEngineERKS1_INS_10SocketCoreEE
libaria2.so.0:_ZN5aria227ReceiverMSEHandshakeCommandC2ElRKSt10shared_ptrINS_4PeerEEPNS_14DownloadEngineERKS1_INS_10SocketCoreEE
libaria2.so.0:_ZN5aria227ReceiverMSEHandshakeCommandD0Ev
libaria2.so.0:_ZN5aria227ReceiverMSEHandshakeCommandD1Ev
libaria2.so.0:_ZN5aria227ReceiverMSEHandshakeCommandD2Ev
libaria2.so.0:_ZN5aria227Sqlite3ChromiumCookieParserC1ERKNSt7__cxx1112basic_stringIcSt11char_traitsIcESaIcEEE
libaria2.so.0:_ZN5aria227Sqlite3ChromiumCookieParserC2ERKNSt7__cxx1112basic_stringIcSt11char_traitsIcESaIcEEE
libaria2.so.0:_ZN5aria227Sqlite3ChromiumCookieParserD0Ev
libaria2.so.0:_ZN5aria227Sqlite3ChromiumCookieParserD1Ev
libaria2.so.0:_ZN5aria227Sqlite3ChromiumCookieParserD2Ev
libaria2.so.0:_ZN5aria227TruncFileAllocationIterator13allocateChunkEv
libaria2.so.0:_ZN5aria227TruncFileAllocationIterator14getTotalLengthEv
libaria2.so.0:_ZN5aria227TruncFileAllocationIterator16getCurrentLengthEv
libaria2.so.0:_ZN5aria227TruncFileAllocationIterator8finishedEv
libaria2.so.0:_ZN5aria227TruncFileAllocationIteratorC1EPNS_12BinaryStreamEll
libaria2.so.0:_ZN5aria227TruncFileAllocationIteratorC2EPNS_12BinaryStreamEll
libaria2.so.0:_ZN5aria228AbstractProxyResponseCommand15executeInternalEv
libaria2.so.0:_ZN5aria228AbstractProxyResponseCommandC1ElRKSt10shared_ptrINS_7RequestEERKS1_INS_9FileEntryEEPNS_12RequestGroupERKS1_INS_14HttpConnectionEEPNS_14DownloadEngineERKS1_INS_10SocketCoreEE
libaria2.so.0:_ZN5aria228AbstractProxyResponseCommandC2ElRKSt10shared_ptrINS_7RequestEERKS1_INS_9FileEntryEEPNS_12RequestGroupERKS1_INS_14HttpConnectionEEPNS_14DownloadEngineERKS1_INS_10SocketCoreEE
libaria2.so.0:_ZN5aria228AbstractProxyResponseCommandD0Ev
libaria2.so.0:_ZN5aria228AbstractProxyResponseCommandD1Ev
libaria2.so.0:_ZN5aria228AbstractProxyResponseCommandD2Ev
libaria2.so.0:_ZN5aria228FallocFileAllocationIterator13allocateChunkEv
libaria2.so.0:_ZN5aria228FallocFileAllocationIterator14getTotalLengthEv
libaria2.so.0:_ZN5aria228FallocFileAllocationIterator16getCurrentLengthEv
libaria2.so.0:_ZN5aria228FallocFileAllocationIterator8finishedEv
libaria2.so.0:_ZN5aria228FallocFileAllocationIteratorC1EPNS_12BinaryStreamEll
libaria2.so.0:_ZN5aria228FallocFileAllocationIteratorC2EPNS_12BinaryStreamEll
libaria2.so.0:_ZN5aria228FtpInitiateConnectionCommand17createNextCommandERKNSt7__cxx1112basic_stringIcSt11char_traitsIcESaIcEEES8_tRKSt6vectorIS6_SaIS6_EERKSt10shared_ptrINS_7RequestEE
libaria2.so.0:_ZN5aria228FtpInitiateConnectionCommand22createNextCommandPlainERKNSt7__cxx1112basic_stringIcSt11char_traitsIcESaIcEEES8_tRKSt6vectorIS6_SaIS6_EE
libaria2.so.0:_ZN5aria228FtpInitiateConnectionCommand24createNextCommandProxiedERKNSt7__cxx1112basic_stringIcSt11char_traitsIcESaIcEEES8_tRKSt6vectorIS6_SaIS6_EERKSt10shared_ptrINS_7RequestEE
libaria2.so.0:_ZN5aria228FtpInitiateConnectionCommandC1ElRKSt10shared_ptrINS_7RequestEERKS1_INS_9FileEntryEEPNS_12RequestGroupEPNS_14DownloadEngineE
libaria2.so.0:_ZN5aria228FtpInitiateConnectionCommandC2ElRKSt10shared_ptrINS_7RequestEERKS1_INS_9FileEntryEEPNS_12RequestGroupEPNS_14DownloadEngineE
libaria2.so.0:_ZN5aria228FtpInitiateConnectionCommandD0Ev
libaria2.so.0:_ZN5aria228FtpInitiateConnectionCommandD1Ev
libaria2.so.0:_ZN5aria228FtpInitiateConnectionCommandD2Ev
libaria2.so.0:_ZN5aria228InitiatorMSEHandshakeCommand10tryNewPeerEv
libaria2.so.0:_ZN5aria228InitiatorMSEHandshakeCommand14setPeerStorageERKSt10shared_ptrINS_11PeerStorageEE
libaria2.so.0:_ZN5aria228InitiatorMSEHandshakeCommand15executeInternalEv
libaria2.so.0:_ZN5aria228InitiatorMSEHandshakeCommand15setPieceStorageERKSt10shared_ptrINS_12PieceStorageEE
libaria2.so.0:_ZN5aria228InitiatorMSEHandshakeCommand17exitBeforeExecuteEv
libaria2.so.0:_ZN5aria228InitiatorMSEHandshakeCommand18prepareForNextPeerEl
libaria2.so.0:_ZN5aria228InitiatorMSEHandshakeCommand7onAbortEv
libaria2.so.0:_ZN5aria228InitiatorMSEHandshakeCommandC1ElPNS_12RequestGroupERKSt10shared_ptrINS_4PeerEEPNS_14DownloadEngineERKS3_INS_9BtRuntimeEERKS3_INS_10SocketCoreEE
libaria2.so.0:_ZN5aria228InitiatorMSEHandshakeCommandC2ElPNS_12RequestGroupERKSt10shared_ptrINS_4PeerEEPNS_14DownloadEngineERKS3_INS_9BtRuntimeEERKS3_INS_10SocketCoreEE
libaria2.so.0:_ZN5aria228InitiatorMSEHandshakeCommandD0Ev
libaria2.so.0:_ZN5aria228InitiatorMSEHandshakeCommandD1Ev
libaria2.so.0:_ZN5aria228InitiatorMSEHandshakeCommandD2Ev
libaria2.so.0:_ZN5aria228MetaurlMetalinkParserStateV410endElementEPNS_26MetalinkParserStateMachineEPKcS4_S4_NSt7__cxx1112basic_stringIcSt11char_traitsIcESaIcEEE
libaria2.so.0:_ZN5aria228PieceHashCheckIntegrityEntry13initValidatorEv
libaria2.so.0:_ZN5aria228PieceHashCheckIntegrityEntry17isValidationReadyEv
libaria2.so.0:_ZN5aria228PieceHashCheckIntegrityEntryC1EPNS_12RequestGroupESt10unique_ptrINS_7CommandESt14default_deleteIS4_EE
libaria2.so.0:_ZN5aria228PieceHashCheckIntegrityEntryC2EPNS_12RequestGroupESt10unique_ptrINS_7CommandESt14default_deleteIS4_EE
libaria2.so.0:_ZN5aria228PieceHashCheckIntegrityEntryD0Ev
libaria2.so.0:_ZN5aria228PieceHashCheckIntegrityEntryD1Ev
libaria2.so.0:_ZN5aria228PieceHashCheckIntegrityEntryD2Ev
libaria2.so.0:_ZN5aria228PieceHashMetalinkParserState10endElementEPNS_26MetalinkParserStateMachineEPKcS4_S4_NSt7__cxx1112basic_stringIcSt11char_traitsIcESaIcEEE
libaria2.so.0:_ZN5aria228PrioritizePieceOptionHandlerC1EPKNS_4PrefEPKcRKNSt7__cxx1112basic_stringIcSt11char_traitsIcESaIcEEEc
libaria2.so.0:_ZN5aria228PrioritizePieceOptionHandlerC2EPKNS_4PrefEPKcRKNSt7__cxx1112basic_stringIcSt11char_traitsIcESaIcEEEc
libaria2.so.0:_ZN5aria228ResourcesMetalinkParserState12beginElementEPNS_26MetalinkParserStateMachineEPKcS4_S4_RKSt6vectorINS_7XmlAttrESaIS6_EE
libaria2.so.0:_ZN5aria228SignatureMetalinkParserState10endElementEPNS_26MetalinkParserStateMachineEPKcS4_S4_NSt7__cxx1112basic_stringIcSt11char_traitsIcESaIcEEE
libaria2.so.0:_ZN5aria228SingleFileAllocationIterator13allocateChunkEv
libaria2.so.0:_ZN5aria228SingleFileAllocationIterator4initEv
libaria2.so.0:_ZN5aria228SingleFileAllocationIterator8finishedEv
libaria2.so.0:_ZN5aria228SingleFileAllocationIteratorC1EPNS_12BinaryStreamEll
libaria2.so.0:_ZN5aria228SingleFileAllocationIteratorC2EPNS_12BinaryStreamEll
libaria2.so.0:_ZN5aria228SingleFileAllocationIteratorD0Ev
libaria2.so.0:_ZN5aria228SingleFileAllocationIteratorD1Ev
libaria2.so.0:_ZN5aria228SingleFileAllocationIteratorD2Ev
libaria2.so.0:_ZN5aria228VersionMetalinkParserStateV410endElementEPNS_26MetalinkParserStateMachineEPKcS4_S4_NSt7__cxx1112basic_stringIcSt11char_traitsIcESaIcEEE
libaria2.so.0:_ZN5aria228createRequestGroupForUriListERSt6vectorISt10shared_ptrINS_12RequestGroupEESaIS3_EERKS1_INS_6OptionEE
libaria2.so.0:_ZN5aria229HttpInitiateConnectionCommand17createNextCommandERKNSt7__cxx1112basic_stringIcSt11char_traitsIcESaIcEEES8_tRKSt6vectorIS6_SaIS6_EERKSt10shared_ptrINS_7RequestEE
libaria2.so.0:_ZN5aria229HttpInitiateConnectionCommandC1ElRKSt10shared_ptrINS_7RequestEERKS1_INS_9FileEntryEEPNS_12RequestGroupEPNS_14DownloadEngineE
libaria2.so.0:_ZN5aria229HttpInitiateConnectionCommandC2ElRKSt10shared_ptrINS_7RequestEERKS1_INS_9FileEntryEEPNS_12RequestGroupEPNS_14DownloadEngineE
libaria2.so.0:_ZN5aria229HttpInitiateConnectionCommandD0Ev
libaria2.so.0:_ZN5aria229HttpInitiateConnectionCommandD1Ev
libaria2.so.0:_ZN5aria229HttpInitiateConnectionCommandD2Ev
libaria2.so.0:_ZN5aria229LanguageMetalinkParserStateV410endElementEPNS_26MetalinkParserStateMachineEPKcS4_S4_NSt7__cxx1112basic_stringIcSt11char_traitsIcESaIcEEE
libaria2.so.0:_ZN5aria229MetalinkMetalinkParserStateV412beginElementEPNS_26MetalinkParserStateMachineEPKcS4_S4_RKSt6vectorINS_7XmlAttrESaIS6_EE
libaria2.so.0:_ZN5aria229PeerInitiateConnectionCommand14setPeerStorageERKSt10shared_ptrINS_11PeerStorageEE
libaria2.so.0:_ZN5aria229PeerInitiateConnectionCommand15executeInternalEv
libaria2.so.0:_ZN5aria229PeerInitiateConnectionCommand15setPieceStorageERKSt10shared_ptrINS_12PieceStorageEE
libaria2.so.0:_ZN5aria229PeerInitiateConnectionCommand17exitBeforeExecuteEv
libaria2.so.0:_ZN5aria229PeerInitiateConnectionCommand18prepareForNextPeerEl
libaria2.so.0:_ZN5aria229PeerInitiateConnectionCommand7onAbortEv
libaria2.so.0:_ZN5aria229PeerInitiateConnectionCommandC1ElPNS_12RequestGroupERKSt10shared_ptrINS_4PeerEEPNS_14DownloadEngineERKS3_INS_9BtRuntimeEEb
libaria2.so.0:_ZN5aria229PeerInitiateConnectionCommandC2ElPNS_12RequestGroupERKSt10shared_ptrINS_4PeerEEPNS_14DownloadEngineERKS3_INS_9BtRuntimeEEb
libaria2.so.0:_ZN5aria229PeerInitiateConnectionCommandD0Ev
libaria2.so.0:_ZN5aria229PeerInitiateConnectionCommandD1Ev
libaria2.so.0:_ZN5aria229PeerInitiateConnectionCommandD2Ev
libaria2.so.0:_ZN5aria229UTMetadataPostDownloadHandlerC1Ev
libaria2.so.0:_ZN5aria229UTMetadataPostDownloadHandlerC2Ev
libaria2.so.0:_ZN5aria229configureAsyncNameResolverManEPNS_20AsyncNameResolverManEPNS_6OptionE
libaria2.so.0:_ZN5aria229createRequestGroupForMetalinkERSt6vectorISt10shared_ptrINS_12RequestGroupEESaIS3_EERKS1_INS_6OptionEERKNSt7__cxx1112basic_stringIcSt11char_traitsIcESaIcEEE
libaria2.so.0:_ZN5aria230AdaptiveFileAllocationIterator13allocateChunkEv
libaria2.so.0:_ZN5aria230AdaptiveFileAllocationIterator14getTotalLengthEv
libaria2.so.0:_ZN5aria230AdaptiveFileAllocationIterator16getCurrentLengthEv
libaria2.so.0:_ZN5aria230AdaptiveFileAllocationIterator8finishedEv
libaria2.so.0:_ZN5aria230AdaptiveFileAllocationIteratorC1EPNS_12BinaryStreamEll
libaria2.so.0:_ZN5aria230AdaptiveFileAllocationIteratorC2EPNS_12BinaryStreamEll
libaria2.so.0:_ZN5aria230AdaptiveFileAllocationIteratorD0Ev
libaria2.so.0:_ZN5aria230AdaptiveFileAllocationIteratorD1Ev
libaria2.so.0:_ZN5aria230AdaptiveFileAllocationIteratorD2Ev
libaria2.so.0:_ZN5aria230BoolValueBaseStructParserState10endElementEPNS_33ValueBaseStructParserStateMachineEi
libaria2.so.0:_ZN5aria230BtAbortOutstandingRequestEventC1ERKSt10shared_ptrINS_5PieceEE
libaria2.so.0:_ZN5aria230BtAbortOutstandingRequestEventC2ERKSt10shared_ptrINS_5PieceEE
libaria2.so.0:_ZN5aria230BtAbortOutstandingRequestEventD1Ev
libaria2.so.0:_ZN5aria230BtAbortOutstandingRequestEventD2Ev
libaria2.so.0:_ZN5aria230DefaultExtensionMessageFactory13createMessageEPKhm
libaria2.so.0:_ZN5aria230DefaultExtensionMessageFactory14setPeerStorageEPNS_11PeerStorageE
libaria2.so.0:_ZN5aria230DefaultExtensionMessageFactory18setDownloadContextEPNS_15DownloadContextE
libaria2.so.0:_ZN5aria230DefaultExtensionMessageFactory19setBtMessageFactoryEPNS_16BtMessageFactoryE
libaria2.so.0:_ZN5aria230DefaultExtensionMessageFactory22setBtMessageDispatcherEPNS_19BtMessageDispatcherE
libaria2.so.0:_ZN5aria230DefaultExtensionMessageFactory27setExtensionMessageRegistryEPNS_24ExtensionMessageRegistryE
libaria2.so.0:_ZN5aria230DefaultExtensionMessageFactory27setUTMetadataRequestTrackerEPNS_24UTMetadataRequestTrackerE
libaria2.so.0:_ZN5aria230DefaultExtensionMessageFactory7setPeerERKSt10shared_ptrINS_4PeerEE
libaria2.so.0:_ZN5aria230DefaultExtensionMessageFactoryC1ERKSt10shared_ptrINS_4PeerEEPNS_24ExtensionMessageRegistryE
libaria2.so.0:_ZN5aria230DefaultExtensionMessageFactoryC1Ev
libaria2.so.0:_ZN5aria230DefaultExtensionMessageFactoryC2ERKSt10shared_ptrINS_4PeerEEPNS_24ExtensionMessageRegistryE
libaria2.so.0:_ZN5aria230DefaultExtensionMessageFactoryC2Ev
libaria2.so.0:_ZN5aria230DictValueBaseStructParserState12beginElementEPNS_33ValueBaseStructParserStateMachineEi
libaria2.so.0:_ZN5aria230NullValueBaseStructParserState10endElementEPNS_33ValueBaseStructParserStateMachineEi
libaria2.so.0:_ZN5aria230PieceHashMetalinkParserStateV410endElementEPNS_26MetalinkParserStateMachineEPKcS4_S4_NSt7__cxx1112basic_stringIcSt11char_traitsIcESaIcEEE
libaria2.so.0:_ZN5aria230SignatureMetalinkParserStateV410endElementEPNS_26MetalinkParserStateMachineEPKcS4_S4_NSt7__cxx1112basic_stringIcSt11char_traitsIcESaIcEEE
libaria2.so.0:_ZN5aria230UTMetadataDataExtensionMessage10getPayloadB5cxx11Ev
libaria2.so.0:_ZN5aria230UTMetadataDataExtensionMessage12setTotalSizeEm
libaria2.so.0:_ZN5aria230UTMetadataDataExtensionMessage15setPieceStorageEPNS_12PieceStorageE
libaria2.so.0:_ZN5aria230UTMetadataDataExtensionMessage16doReceivedActionEv
libaria2.so.0:_ZN5aria230UTMetadataDataExtensionMessage18setDownloadContextEPNS_15DownloadContextE
libaria2.so.0:_ZN5aria230UTMetadataDataExtensionMessage27setUTMetadataRequestTrackerEPNS_24UTMetadataRequestTrackerE
libaria2.so.0:_ZN5aria230UTMetadataDataExtensionMessage7setDataERKNSt7__cxx1112basic_stringIcSt11char_traitsIcESaIcEEE
libaria2.so.0:_ZN5aria230UTMetadataDataExtensionMessageC1Eh
libaria2.so.0:_ZN5aria230UTMetadataDataExtensionMessageC2Eh
libaria2.so.0:_ZN5aria231ArrayValueBaseStructParserState12beginElementEPNS_33ValueBaseStructParserStateMachineEi
libaria2.so.0:_ZN5aria231CheckIntegrityDispatcherCommand13createCommandEPNS_19CheckIntegrityEntryE
libaria2.so.0:_ZN5aria231CheckIntegrityDispatcherCommandC1ElPNS_16SequentialPickerINS_19CheckIntegrityEntryEEEPNS_14DownloadEngineE
libaria2.so.0:_ZN5aria231CheckIntegrityDispatcherCommandC2ElPNS_16SequentialPickerINS_19CheckIntegrityEntryEEEPNS_14DownloadEngineE
libaria2.so.0:_ZN5aria231ContentTypeRequestGroupCriteriaC1EPKPKcS4_
libaria2.so.0:_ZN5aria231ContentTypeRequestGroupCriteriaC2EPKPKcS4_
libaria2.so.0:_ZN5aria231ContentTypeRequestGroupCriteriaD0Ev
libaria2.so.0:_ZN5aria231ContentTypeRequestGroupCriteriaD1Ev
libaria2.so.0:_ZN5aria231ContentTypeRequestGroupCriteriaD2Ev
libaria2.so.0:_ZN5aria231DHTEntryPointNameResolveCommand11addPingTaskERKSt4pairINSt7__cxx1112basic_stringIcSt11char_traitsIcESaIcEEEtE
libaria2.so.0:_ZN5aria231DHTEntryPointNameResolveCommand12setLocalNodeERKSt10shared_ptrINS_7DHTNodeEE
libaria2.so.0:_ZN5aria231DHTEntryPointNameResolveCommand12setTaskQueueEPNS_12DHTTaskQueueE
libaria2.so.0:_ZN5aria231DHTEntryPointNameResolveCommand14setTaskFactoryEPNS_14DHTTaskFactoryE
libaria2.so.0:_ZN5aria231DHTEntryPointNameResolveCommand15resolveHostnameERSt6vectorINSt7__cxx1112basic_stringIcSt11char_traitsIcESaIcEEESaIS7_EERKS7_
libaria2.so.0:_ZN5aria231DHTEntryPointNameResolveCommand15setRoutingTableEPNS_15DHTRoutingTableE
libaria2.so.0:_ZN5aria231DHTEntryPointNameResolveCommand19setBootstrapEnabledEb
libaria2.so.0:_ZN5aria231DHTEntryPointNameResolveCommand7executeEv
libaria2.so.0:_ZN5aria231DHTEntryPointNameResolveCommandC1ElPNS_14DownloadEngineEiRKSt6vectorISt4pairINSt7__cxx1112basic_stringIcSt11char_traitsIcESaIcEEEtESaISB_EE
libaria2.so.0:_ZN5aria231DHTEntryPointNameResolveCommandC2ElPNS_14DownloadEngineEiRKSt6vectorISt4pairINSt7__cxx1112basic_stringIcSt11char_traitsIcESaIcEEEtESaISB_EE
libaria2.so.0:_ZN5aria231DHTEntryPointNameResolveCommandD0Ev
libaria2.so.0:_ZN5aria231DHTEntryPointNameResolveCommandD1Ev
libaria2.so.0:_ZN5aria231DHTEntryPointNameResolveCommandD2Ev
libaria2.so.0:_ZN5aria231FileAllocationDispatcherCommand13createCommandEPNS_19FileAllocationEntryE
libaria2.so.0:_ZN5aria231FileAllocationDispatcherCommandC1ElPNS_16SequentialPickerINS_19FileAllocationEntryEEEPNS_14DownloadEngineE
libaria2.so.0:_ZN5aria231FileAllocationDispatcherCommandC2ElPNS_16SequentialPickerINS_19FileAllocationEntryEEEPNS_14DownloadEngineE
libaria2.so.0:_ZN5aria231ValueValueBaseStructParserState12beginElementEPNS_33ValueBaseStructParserStateMachineEi
libaria2.so.0:_ZN5aria231VerificationMetalinkParserState12beginElementEPNS_26MetalinkParserStateMachineEPKcS4_S4_RKSt6vectorINS_7XmlAttrESaIS6_EE
libaria2.so.0:_ZN5aria231createRequestGroupForBitTorrentERSt6vectorISt10shared_ptrINS_12RequestGroupEESaIS3_EERKS1_INS_6OptionEERKS0_INSt7__cxx1112basic_stringIcSt11char_traitsIcESaIcEEESaISG_EERKSG_PKNS_9ValueBaseEb
libaria2.so.0:_ZN5aria231createRequestGroupForBitTorrentERSt6vectorISt10shared_ptrINS_12RequestGroupEESaIS3_EERKS1_INS_6OptionEERKS0_INSt7__cxx1112basic_stringIcSt11char_traitsIcESaIcEEESaISG_EERKSG_SM_b
libaria2.so.0:_ZN5aria232ApiCallbackDownloadEventListener7onEventENS_13DownloadEventEPKNS_12RequestGroupE
libaria2.so.0:_ZN5aria232ApiCallbackDownloadEventListenerC1EPNS_7SessionEPFiS2_NS_13DownloadEventEmPvES4_
libaria2.so.0:_ZN5aria232ApiCallbackDownloadEventListenerC2EPNS_7SessionEPFiS2_NS_13DownloadEventEmPvES4_
libaria2.so.0:_ZN5aria232ApiCallbackDownloadEventListenerD0Ev
libaria2.so.0:_ZN5aria232ApiCallbackDownloadEventListenerD1Ev
libaria2.so.0:_ZN5aria232ApiCallbackDownloadEventListenerD2Ev
libaria2.so.0:_ZN5aria232InitiateConnectionCommandFactory31createInitiateConnectionCommandElRKSt10shared_ptrINS_7RequestEERKS1_INS_9FileEntryEEPNS_12RequestGroupEPNS_14DownloadEngineE
libaria2.so.0:_ZN5aria232IteratableChunkChecksumValidator13validateChunkEv
libaria2.so.0:_ZN5aria232IteratableChunkChecksumValidator23calculateActualChecksumB5cxx11Ev
libaria2.so.0:_ZN5aria232IteratableChunkChecksumValidator4initEv
libaria2.so.0:_ZN5aria232IteratableChunkChecksumValidator6digestB5cxx11Elm
libaria2.so.0:_ZN5aria232IteratableChunkChecksumValidatorC1ERKSt10shared_ptrINS_15DownloadContextEERKS1_INS_12PieceStorageEE
libaria2.so.0:_ZN5aria232IteratableChunkChecksumValidatorC2ERKSt10shared_ptrINS_15DownloadContextEERKS1_INS_12PieceStorageEE
libaria2.so.0:_ZN5aria232IteratableChunkChecksumValidatorD0Ev
libaria2.so.0:_ZN5aria232IteratableChunkChecksumValidatorD1Ev
libaria2.so.0:_ZN5aria232IteratableChunkChecksumValidatorD2Ev
libaria2.so.0:_ZN5aria232NumberValueBaseStructParserState10endElementEPNS_33ValueBaseStructParserStateMachineEi
libaria2.so.0:_ZN5aria232StringValueBaseStructParserState10endElementEPNS_33ValueBaseStructParserStateMachineEi
libaria2.so.0:_ZN5aria232UTMetadataRejectExtensionMessage10getPayloadB5cxx11Ev
libaria2.so.0:_ZN5aria232UTMetadataRejectExtensionMessage16doReceivedActionEv
libaria2.so.0:_ZN5aria232UTMetadataRejectExtensionMessageC1Eh
libaria2.so.0:_ZN5aria232UTMetadataRejectExtensionMessageC2Eh
libaria2.so.0:_ZN5aria233AbstractHttpServerResponseCommand20updateReadWriteCheckEv
libaria2.so.0:_ZN5aria233AbstractHttpServerResponseCommand7executeEv
libaria2.so.0:_ZN5aria233AbstractHttpServerResponseCommandC1ElRKSt10shared_ptrINS_10HttpServerEEPNS_14DownloadEngineERKS1_INS_10SocketCoreEE
libaria2.so.0:_ZN5aria233AbstractHttpServerResponseCommandC2ElRKSt10shared_ptrINS_10HttpServerEEPNS_14DownloadEngineERKS1_INS_10SocketCoreEE
libaria2.so.0:_ZN5aria233AbstractHttpServerResponseCommandD0Ev
libaria2.so.0:_ZN5aria233AbstractHttpServerResponseCommandD1Ev
libaria2.so.0:_ZN5aria233AbstractHttpServerResponseCommandD2Ev
libaria2.so.0:_ZN5aria233DictKeyValueBaseStructParserState10endElementEPNS_33ValueBaseStructParserStateMachineEi
libaria2.so.0:_ZN5aria233UTMetadataRequestExtensionMessage10getPayloadB5cxx11Ev
libaria2.so.0:_ZN5aria233UTMetadataRequestExtensionMessage16doReceivedActionEv
libaria2.so.0:_ZN5aria233UTMetadataRequestExtensionMessage18setDownloadContextEPNS_15DownloadContextE
libaria2.so.0:_ZN5aria233UTMetadataRequestExtensionMessage19setBtMessageFactoryEPNS_16BtMessageFactoryE
libaria2.so.0:_ZN5aria233UTMetadataRequestExtensionMessage22setBtMessageDispatcherEPNS_19BtMessageDispatcherE
libaria2.so.0:_ZN5aria233UTMetadataRequestExtensionMessage7setPeerERKSt10shared_ptrINS_4PeerEE
libaria2.so.0:_ZN5aria233UTMetadataRequestExtensionMessageC1Eh
libaria2.so.0:_ZN5aria233UTMetadataRequestExtensionMessageC2Eh
libaria2.so.0:_ZN5aria233ValueBaseStructParserStateMachine10endElementEi
libaria2.so.0:_ZN5aria233ValueBaseStructParserStateMachine12beginElementEi
libaria2.so.0:_ZN5aria233ValueBaseStructParserStateMachine12boolCallbackEb
libaria2.so.0:_ZN5aria233ValueBaseStructParserStateMachine12popDictFrameEv
libaria2.so.0:_ZN5aria233ValueBaseStructParserStateMachine13popArrayFrameEv
libaria2.so.0:_ZN5aria233ValueBaseStructParserStateMachine13pushBoolStateEv
libaria2.so.0:_ZN5aria233ValueBaseStructParserStateMachine13pushDictStateEv
libaria2.so.0:_ZN5aria233ValueBaseStructParserStateMachine13pushNullStateEv
libaria2.so.0:_ZN5aria233ValueBaseStructParserStateMachine14numberCallbackElii
libaria2.so.0:_ZN5aria233ValueBaseStructParserStateMachine14pushArrayStateEv
libaria2.so.0:_ZN5aria233ValueBaseStructParserStateMachine15pushNumberStateEv
libaria2.so.0:_ZN5aria233ValueBaseStructParserStateMachine15pushStringStateEv
libaria2.so.0:_ZN5aria233ValueBaseStructParserStateMachine16pushDictKeyStateEv
libaria2.so.0:_ZN5aria233ValueBaseStructParserStateMachine17pushDictDataStateEv
libaria2.so.0:_ZN5aria233ValueBaseStructParserStateMachine18charactersCallbackEPKcm
libaria2.so.0:_ZN5aria233ValueBaseStructParserStateMachine18pushArrayDataStateEv
libaria2.so.0:_ZN5aria233ValueBaseStructParserStateMachine19setCurrentFrameNameENSt7__cxx1112basic_stringIcSt11char_traitsIcESaIcEEE
libaria2.so.0:_ZN5aria233ValueBaseStructParserStateMachine20popCurrentFrameValueEv
libaria2.so.0:_ZN5aria233ValueBaseStructParserStateMachine20setCurrentFrameValueESt10unique_ptrINS_9ValueBaseESt14default_deleteIS2_EE
libaria2.so.0:_ZN5aria233ValueBaseStructParserStateMachine5resetEv
libaria2.so.0:_ZN5aria233ValueBaseStructParserStateMachine8noResultEv
libaria2.so.0:_ZN5aria233ValueBaseStructParserStateMachine9getResultEv
libaria2.so.0:_ZN5aria233ValueBaseStructParserStateMachine9pushFrameEv
libaria2.so.0:_ZN5aria233ValueBaseStructParserStateMachineC1Ev
libaria2.so.0:_ZN5aria233ValueBaseStructParserStateMachineC2Ev
libaria2.so.0:_ZN5aria233ValueBaseStructParserStateMachineD0Ev
libaria2.so.0:_ZN5aria233ValueBaseStructParserStateMachineD1Ev
libaria2.so.0:_ZN5aria233ValueBaseStructParserStateMachineD2Ev
libaria2.so.0:_ZN5aria234DictDataValueBaseStructParserState10endElementEPNS_33ValueBaseStructParserStateMachineEi
libaria2.so.0:_ZN5aria235ArrayDataValueBaseStructParserState10endElementEPNS_33ValueBaseStructParserStateMachineEi
libaria2.so.0:_ZN5aria235createRequestGroupFromUriListParserERSt6vectorISt10shared_ptrINS_12RequestGroupEESaIS3_EEPKNS_6OptionEPNS_13UriListParserE
libaria2.so.0:_ZN5aria236createMetadataInfoFromFirstFileEntryERKSt10shared_ptrINS_7GroupIdEERKS0_INS_15DownloadContextEE
libaria2.so.0:_ZN5aria23dht13findBucketForEPNS_17DHTBucketTreeNodeEPKh
libaria2.so.0:_ZN5aria23dht15enumerateBucketERSt6vectorISt10shared_ptrINS_9DHTBucketEESaIS4_EEPNS_17DHTBucketTreeNodeE
libaria2.so.0:_ZN5aria23dht15findTreeNodeForEPNS_17DHTBucketTreeNodeEPKh
libaria2.so.0:_ZN5aria23dht17findClosestKNodesERSt6vectorISt10shared_ptrINS_7DHTNodeEESaIS4_EEPNS_17DHTBucketTreeNodeEPKh
libaria2.so.0:_ZN5aria23fmtB5cxx11EPKcz
libaria2.so.0:_ZN5aria23net10getBinAddrEPvRKNSt7__cxx1112basic_stringIcSt11char_traitsIcESaIcEEE
libaria2.so.0:_ZN5aria23net14verifyHostnameERKNSt7__cxx1112basic_stringIcSt11char_traitsIcESaIcEEERKSt6vectorIS6_SaIS6_EESD_S8_
libaria2.so.0:_ZN5aria23net15checkAddrconfigEv
libaria2.so.0:_ZN5aria23net21getIPv4AddrConfiguredEv
libaria2.so.0:_ZN5aria23net21getIPv6AddrConfiguredEv
libaria2.so.0:_ZN5aria23rpc10RpcRequestC1ENSt7__cxx1112basic_stringIcSt11char_traitsIcESaIcEEESt10unique_ptrINS_4ListESt14default_deleteIS9_EE
libaria2.so.0:_ZN5aria23rpc10RpcRequestC1ENSt7__cxx1112basic_stringIcSt11char_traitsIcESaIcEEESt10unique_ptrINS_4ListESt14default_deleteIS9_EES8_INS_9ValueBaseESA_ISD_EEb
libaria2.so.0:_ZN5aria23rpc10RpcRequestC1Ev
libaria2.so.0:_ZN5aria23rpc10RpcRequestC2ENSt7__cxx1112basic_stringIcSt11char_traitsIcESaIcEEESt10unique_ptrINS_4ListESt14default_deleteIS9_EE
libaria2.so.0:_ZN5aria23rpc10RpcRequestC2ENSt7__cxx1112basic_stringIcSt11char_traitsIcESaIcEEESt10unique_ptrINS_4ListESt14default_deleteIS9_EES8_INS_9ValueBaseESA_ISD_EEb
libaria2.so.0:_ZN5aria23rpc10RpcRequestC2Ev
libaria2.so.0:_ZN5aria23rpc11RpcResponseC1EiNS1_15authorization_tESt10unique_ptrINS_9ValueBaseESt14default_deleteIS4_EES7_
libaria2.so.0:_ZN5aria23rpc11RpcResponseC2EiNS1_15authorization_tESt10unique_ptrINS_9ValueBaseESt14default_deleteIS4_EES7_
libaria2.so.0:_ZN5aria23rpc11toJsonBatchERKSt6vectorINS0_11RpcResponseESaIS2_EERKNSt7__cxx1112basic_stringIcSt11char_traitsIcESaIcEEEb
libaria2.so.0:_ZN5aria23rpc14PauseRpcMethod7processERKNS0_10RpcRequestEPNS_14DownloadEngineE
libaria2.so.0:_ZN5aria23rpc14allMethodNamesB5cxx11Ev
libaria2.so.0:_ZN5aria23rpc14xmlParseMemoryEPKcm
libaria2.so.0:_ZN5aria23rpc15AddUriRpcMethod7processERKNS0_10RpcRequestEPNS_14DownloadEngineE
libaria2.so.0:_ZN5aria23rpc15RemoveRpcMethod7processERKNS0_10RpcRequestEPNS_14DownloadEngineE
libaria2.so.0:_ZN5aria23rpc16GetUrisRpcMethod7processERKNS0_10RpcRequestEPNS_14DownloadEngineE
libaria2.so.0:_ZN5aria23rpc16UnpauseRpcMethod7processERKNS0_10RpcRequestEPNS_14DownloadEngineE
libaria2.so.0:_ZN5aria23rpc16WebSocketSession10parseFinalEPKhmRl
libaria2.so.0:_ZN5aria23rpc16WebSocketSession11onReadEventEv
libaria2.so.0:_ZN5aria23rpc16WebSocketSession11parseUpdateEPKhm
libaria2.so.0:_ZN5aria23rpc16WebSocketSession12onWriteEventEv
libaria2.so.0:_ZN5aria23rpc16WebSocketSession13closeReceivedEv
libaria2.so.0:_ZN5aria23rpc16WebSocketSession14addTextMessageERKNSt7__cxx1112basic_stringIcSt11char_traitsIcESaIcEEEb
libaria2.so.0:_ZN5aria23rpc16WebSocketSession6finishEv
libaria2.so.0:_ZN5aria23rpc16WebSocketSession8wantReadEv
libaria2.so.0:_ZN5aria23rpc16WebSocketSession9closeSentEv
libaria2.so.0:_ZN5aria23rpc16WebSocketSession9wantWriteEv
libaria2.so.0:_ZN5aria23rpc16WebSocketSessionC1ERKSt10shared_ptrINS_10SocketCoreEEPNS_14DownloadEngineE
libaria2.so.0:_ZN5aria23rpc16WebSocketSessionC2ERKSt10shared_ptrINS_10SocketCoreEEPNS_14DownloadEngineE
libaria2.so.0:_ZN5aria23rpc16WebSocketSessionD1Ev
libaria2.so.0:_ZN5aria23rpc16WebSocketSessionD2Ev
libaria2.so.0:_ZN5aria23rpc16XmlRpcDiskWriter15initAndOpenFileEl
libaria2.so.0:_ZN5aria23rpc16XmlRpcDiskWriter5resetEv
libaria2.so.0:_ZN5aria23rpc16XmlRpcDiskWriter8finalizeEv
libaria2.so.0:_ZN5aria23rpc16XmlRpcDiskWriter9getResultEv
libaria2.so.0:_ZN5aria23rpc16XmlRpcDiskWriter9writeDataEPKhml
libaria2.so.0:_ZN5aria23rpc16XmlRpcDiskWriterC1Ev
libaria2.so.0:_ZN5aria23rpc16XmlRpcDiskWriterC2Ev
libaria2.so.0:_ZN5aria23rpc16XmlRpcDiskWriterD0Ev
libaria2.so.0:_ZN5aria23rpc16XmlRpcDiskWriterD1Ev
libaria2.so.0:_ZN5aria23rpc16XmlRpcDiskWriterD2Ev
libaria2.so.0:_ZN5aria23rpc17GetFilesRpcMethod7processERKNS0_10RpcRequestEPNS_14DownloadEngineE
libaria2.so.0:_ZN5aria23rpc17GetPeersRpcMethod7processERKNS0_10RpcRequestEPNS_14DownloadEngineE
libaria2.so.0:_ZN5aria23rpc17PauseAllRpcMethod7processERKNS0_10RpcRequestEPNS_14DownloadEngineE
libaria2.so.0:_ZN5aria23rpc17ShutdownRpcMethod7processERKNS0_10RpcRequestEPNS_14DownloadEngineE
libaria2.so.0:_ZN5aria23rpc18ChangeUriRpcMethod7processERKNS0_10RpcRequestEPNS_14DownloadEngineE
libaria2.so.0:_ZN5aria23rpc18GetOptionRpcMethod7processERKNS0_10RpcRequestEPNS_14DownloadEngineE
libaria2.so.0:_ZN5aria23rpc19AddTorrentRpcMethod7processERKNS0_10RpcRequestEPNS_14DownloadEngineE
libaria2.so.0:_ZN5aria23rpc19ForcePauseRpcMethod7processERKNS0_10RpcRequestEPNS_14DownloadEngineE
libaria2.so.0:_ZN5aria23rpc19GetServersRpcMethod7processERKNS0_10RpcRequestEPNS_14DownloadEngineE
libaria2.so.0:_ZN5aria23rpc19GetVersionRpcMethod7processERKNS0_10RpcRequestEPNS_14DownloadEngineE
libaria2.so.0:_ZN5aria23rpc19TellActiveRpcMethod7processERKNS0_10RpcRequestEPNS_14DownloadEngineE
libaria2.so.0:_ZN5aria23rpc19TellStatusRpcMethod7processERKNS0_10RpcRequestEPNS_14DownloadEngineE
libaria2.so.0:_ZN5aria23rpc19UnpauseAllRpcMethod7processERKNS0_10RpcRequestEPNS_14DownloadEngineE
libaria2.so.0:_ZN5aria23rpc19WebSocketSessionMan10addSessionERKSt10shared_ptrINS0_16WebSocketSessionEE
libaria2.so.0:_ZN5aria23rpc19WebSocketSessionMan13removeSessionERKSt10shared_ptrINS0_16WebSocketSessionEE
libaria2.so.0:_ZN5aria23rpc19WebSocketSessionMan15addNotificationERKNSt7__cxx1112basic_stringIcSt11char_traitsIcESaIcEEEPKNS_12RequestGroupE
libaria2.so.0:_ZN5aria23rpc19WebSocketSessionMan7onEventENS_13DownloadEventEPKNS_12RequestGroupE
libaria2.so.0:_ZN5aria23rpc19WebSocketSessionManC1Ev
libaria2.so.0:_ZN5aria23rpc19WebSocketSessionManC2Ev
libaria2.so.0:_ZN5aria23rpc19WebSocketSessionManD0Ev
libaria2.so.0:_ZN5aria23rpc19WebSocketSessionManD1Ev
libaria2.so.0:_ZN5aria23rpc19WebSocketSessionManD2Ev
libaria2.so.0:_ZN5aria23rpc20AddMetalinkRpcMethod7processERKNS0_10RpcRequestEPNS_14DownloadEngineE
libaria2.so.0:_ZN5aria23rpc20ForceRemoveRpcMethod7processERKNS0_10RpcRequestEPNS_14DownloadEngineE
libaria2.so.0:_ZN5aria23rpc20SaveSessionRpcMethod7processERKNS0_10RpcRequestEPNS_14DownloadEngineE
libaria2.so.0:_ZN5aria23rpc20gatherProgressCommonEPNS_4DictERKSt10shared_ptrINS_12RequestGroupEERKSt6vectorINSt7__cxx1112basic_stringIcSt11char_traitsIcESaIcEEESaISE_EE
libaria2.so.0:_ZN5aria23rpc21ChangeOptionRpcMethod7processERKNS0_10RpcRequestEPNS_14DownloadEngineE
libaria2.so.0:_ZN5aria23rpc21NoSuchMethodRpcMethod7processERKNS0_10RpcRequestEPNS_14DownloadEngineE
libaria2.so.0:_ZN5aria23rpc21allNotificationsNamesB5cxx11Ev
libaria2.so.0:_ZN5aria23rpc21gatherStoppedDownloadEPNS_4DictERKSt10shared_ptrINS_14DownloadResultEERKSt6vectorINSt7__cxx1112basic_stringIcSt11char_traitsIcESaIcEEESaISE_EE
libaria2.so.0:_ZN5aria23rpc21processJsonRpcRequestEPNS_4DictEPNS_14DownloadEngineE
libaria2.so.0:_ZN5aria23rpc22ForcePauseAllRpcMethod7processERKNS0_10RpcRequestEPNS_14DownloadEngineE
libaria2.so.0:_ZN5aria23rpc22ForceShutdownRpcMethod7processERKNS0_10RpcRequestEPNS_14DownloadEngineE
libaria2.so.0:_ZN5aria23rpc22GetGlobalStatRpcMethod7processERKNS0_10RpcRequestEPNS_14DownloadEngineE
libaria2.so.0:_ZN5aria23rpc23ChangePositionRpcMethod7processERKNS0_10RpcRequestEPNS_14DownloadEngineE
libaria2.so.0:_ZN5aria23rpc23GetSessionInfoRpcMethod7processERKNS0_10RpcRequestEPNS_14DownloadEngineE
libaria2.so.0:_ZN5aria23rpc24GetGlobalOptionRpcMethod7processERKNS0_10RpcRequestEPNS_14DownloadEngineE
libaria2.so.0:_ZN5aria23rpc24SystemMulticallRpcMethod7executeENS0_10RpcRequestEPNS_14DownloadEngineE
libaria2.so.0:_ZN5aria23rpc24SystemMulticallRpcMethod7processERKNS0_10RpcRequestEPNS_14DownloadEngineE
libaria2.so.0:_ZN5aria23rpc24WebSocketResponseCommand9afterSendERKSt10shared_ptrINS_10HttpServerEEPNS_14DownloadEngineE
libaria2.so.0:_ZN5aria23rpc24WebSocketResponseCommandC1ElRKSt10shared_ptrINS_10HttpServerEEPNS_14DownloadEngineERKS2_INS_10SocketCoreEE
libaria2.so.0:_ZN5aria23rpc24WebSocketResponseCommandC2ElRKSt10shared_ptrINS_10HttpServerEEPNS_14DownloadEngineERKS2_INS_10SocketCoreEE
libaria2.so.0:_ZN5aria23rpc24WebSocketResponseCommandD0Ev
libaria2.so.0:_ZN5aria23rpc24WebSocketResponseCommandD1Ev
libaria2.so.0:_ZN5aria23rpc24WebSocketResponseCommandD2Ev
libaria2.so.0:_ZN5aria23rpc24gatherBitTorrentMetadataEPNS_4DictEPNS_16TorrentAttributeE
libaria2.so.0:_ZN5aria23rpc26SystemListMethodsRpcMethod7executeENS0_10RpcRequestEPNS_14DownloadEngineE
libaria2.so.0:_ZN5aria23rpc26SystemListMethodsRpcMethod7processERKNS0_10RpcRequestEPNS_14DownloadEngineE
libaria2.so.0:_ZN5aria23rpc26createJsonRpcErrorResponseEiRKNSt7__cxx1112basic_stringIcSt11char_traitsIcESaIcEEESt10unique_ptrINS_9ValueBaseESt14default_deleteISA_EE
libaria2.so.0:_ZN5aria23rpc27ChangeGlobalOptionRpcMethod7processERKNS0_10RpcRequestEPNS_14DownloadEngineE
libaria2.so.0:_ZN5aria23rpc27IntXmlRpcRequestParserState10endElementEPNS0_31XmlRpcRequestParserStateMachineEPKcNSt7__cxx1112basic_stringIcSt11char_traitsIcESaIcEEE
libaria2.so.0:_ZN5aria23rpc27IntXmlRpcRequestParserState12beginElementEPNS0_31XmlRpcRequestParserStateMachineEPKcRKSt6vectorINS_7XmlAttrESaIS7_EE
libaria2.so.0:_ZN5aria23rpc27WebSocketInteractionCommand16updateWriteCheckEv
libaria2.so.0:_ZN5aria23rpc27WebSocketInteractionCommand7executeEv
libaria2.so.0:_ZN5aria23rpc27WebSocketInteractionCommandC1ElRKSt10shared_ptrINS0_16WebSocketSessionEEPNS_14DownloadEngineERKS2_INS_10SocketCoreEE
libaria2.so.0:_ZN5aria23rpc27WebSocketInteractionCommandC2ElRKSt10shared_ptrINS0_16WebSocketSessionEEPNS_14DownloadEngineERKS2_INS_10SocketCoreEE
libaria2.so.0:_ZN5aria23rpc27WebSocketInteractionCommandD0Ev
libaria2.so.0:_ZN5aria23rpc27WebSocketInteractionCommandD1Ev
libaria2.so.0:_ZN5aria23rpc27WebSocketInteractionCommandD2Ev
libaria2.so.0:_ZN5aria23rpc28DataXmlRpcRequestParserState12beginElementEPNS0_31XmlRpcRequestParserStateMachineEPKcRKSt6vectorINS_7XmlAttrESaIS7_EE
libaria2.so.0:_ZN5aria23rpc28NameXmlRpcRequestParserState10endElementEPNS0_31XmlRpcRequestParserStateMachineEPKcNSt7__cxx1112basic_stringIcSt11char_traitsIcESaIcEEE
libaria2.so.0:_ZN5aria23rpc28NameXmlRpcRequestParserState12beginElementEPNS0_31XmlRpcRequestParserStateMachineEPKcRKSt6vectorINS_7XmlAttrESaIS7_EE
libaria2.so.0:_ZN5aria23rpc28PurgeDownloadResultRpcMethod7processERKNS0_10RpcRequestEPNS_14DownloadEngineE
libaria2.so.0:_ZN5aria23rpc29ArrayXmlRpcRequestParserState12beginElementEPNS0_31XmlRpcRequestParserStateMachineEPKcRKSt6vectorINS_7XmlAttrESaIS7_EE
libaria2.so.0:_ZN5aria23rpc29ParamXmlRpcRequestParserState10endElementEPNS0_31XmlRpcRequestParserStateMachineEPKcNSt7__cxx1112basic_stringIcSt11char_traitsIcESaIcEEE
libaria2.so.0:_ZN5aria23rpc29ParamXmlRpcRequestParserState12beginElementEPNS0_31XmlRpcRequestParserStateMachineEPKcRKSt6vectorINS_7XmlAttrESaIS7_EE
libaria2.so.0:_ZN5aria23rpc29RemoveDownloadResultRpcMethod7processERKNS0_10RpcRequestEPNS_14DownloadEngineE
libaria2.so.0:_ZN5aria23rpc29ValueXmlRpcRequestParserState10endElementEPNS0_31XmlRpcRequestParserStateMachineEPKcNSt7__cxx1112basic_stringIcSt11char_traitsIcESaIcEEE
libaria2.so.0:_ZN5aria23rpc29ValueXmlRpcRequestParserState12beginElementEPNS0_31XmlRpcRequestParserStateMachineEPKcRKSt6vectorINS_7XmlAttrESaIS7_EE
libaria2.so.0:_ZN5aria23rpc29XmlRpcRequestParserController13popArrayFrameEv
libaria2.so.0:_ZN5aria23rpc29XmlRpcRequestParserController13setMethodNameENSt7__cxx1112basic_stringIcSt11char_traitsIcESaIcEEE
libaria2.so.0:_ZN5aria23rpc29XmlRpcRequestParserController14popStructFrameEv
libaria2.so.0:_ZN5aria23rpc29XmlRpcRequestParserController19setCurrentFrameNameENSt7__cxx1112basic_stringIcSt11char_traitsIcESaIcEEE
libaria2.so.0:_ZN5aria23rpc29XmlRpcRequestParserController20popCurrentFrameValueEv
libaria2.so.0:_ZN5aria23rpc29XmlRpcRequestParserController20setCurrentFrameValueESt10unique_ptrINS_9ValueBaseESt14default_deleteIS3_EE
libaria2.so.0:_ZN5aria23rpc29XmlRpcRequestParserController5resetEv
libaria2.so.0:_ZN5aria23rpc29XmlRpcRequestParserController9pushFrameEv
libaria2.so.0:_ZN5aria23rpc30Base64XmlRpcRequestParserState10endElementEPNS0_31XmlRpcRequestParserStateMachineEPKcNSt7__cxx1112basic_stringIcSt11char_traitsIcESaIcEEE
libaria2.so.0:_ZN5aria23rpc30Base64XmlRpcRequestParserState12beginElementEPNS0_31XmlRpcRequestParserStateMachineEPKcRKSt6vectorINS_7XmlAttrESaIS7_EE
libaria2.so.0:_ZN5aria23rpc30MemberXmlRpcRequestParserState10endElementEPNS0_31XmlRpcRequestParserStateMachineEPKcNSt7__cxx1112basic_stringIcSt11char_traitsIcESaIcEEE
libaria2.so.0:_ZN5aria23rpc30MemberXmlRpcRequestParserState12beginElementEPNS0_31XmlRpcRequestParserStateMachineEPKcRKSt6vectorINS_7XmlAttrESaIS7_EE
libaria2.so.0:_ZN5aria23rpc30ParamsXmlRpcRequestParserState12beginElementEPNS0_31XmlRpcRequestParserStateMachineEPKcRKSt6vectorINS_7XmlAttrESaIS7_EE
libaria2.so.0:_ZN5aria23rpc30StringXmlRpcRequestParserState10endElementEPNS0_31XmlRpcRequestParserStateMachineEPKcNSt7__cxx1112basic_stringIcSt11char_traitsIcESaIcEEE
libaria2.so.0:_ZN5aria23rpc30StringXmlRpcRequestParserState12beginElementEPNS0_31XmlRpcRequestParserStateMachineEPKcRKSt6vectorINS_7XmlAttrESaIS7_EE
libaria2.so.0:_ZN5aria23rpc30StructXmlRpcRequestParserState12beginElementEPNS0_31XmlRpcRequestParserStateMachineEPKcRKSt6vectorINS_7XmlAttrESaIS7_EE
libaria2.so.0:_ZN5aria23rpc31InitialXmlRpcRequestParserState10endElementEPNS0_31XmlRpcRequestParserStateMachineEPKcNSt7__cxx1112basic_stringIcSt11char_traitsIcESaIcEEE
libaria2.so.0:_ZN5aria23rpc31InitialXmlRpcRequestParserState12beginElementEPNS0_31XmlRpcRequestParserStateMachineEPKcRKSt6vectorINS_7XmlAttrESaIS7_EE
libaria2.so.0:_ZN5aria23rpc31XmlRpcRequestParserStateMachine10endElementEPKcS3_S3_NSt7__cxx1112basic_stringIcSt11char_traitsIcESaIcEEE
libaria2.so.0:_ZN5aria23rpc31XmlRpcRequestParserStateMachine12beginElementEPKcS3_S3_RKSt6vectorINS_7XmlAttrESaIS5_EE
libaria2.so.0:_ZN5aria23rpc31XmlRpcRequestParserStateMachine12pushIntStateEv
libaria2.so.0:_ZN5aria23rpc31XmlRpcRequestParserStateMachine13popArrayFrameEv
libaria2.so.0:_ZN5aria23rpc31XmlRpcRequestParserStateMachine13pushDataStateEv
libaria2.so.0:_ZN5aria23rpc31XmlRpcRequestParserStateMachine13pushNameStateEv
libaria2.so.0:_ZN5aria23rpc31XmlRpcRequestParserStateMachine13setMethodNameENSt7__cxx1112basic_stringIcSt11char_traitsIcESaIcEEE
libaria2.so.0:_ZN5aria23rpc31XmlRpcRequestParserStateMachine14popStructFrameEv
libaria2.so.0:_ZN5aria23rpc31XmlRpcRequestParserStateMachine14pushArrayStateEv
libaria2.so.0:_ZN5aria23rpc31XmlRpcRequestParserStateMachine14pushParamStateEv
libaria2.so.0:_ZN5aria23rpc31XmlRpcRequestParserStateMachine14pushValueStateEv
libaria2.so.0:_ZN5aria23rpc31XmlRpcRequestParserStateMachine15pushBase64StateEv
libaria2.so.0:_ZN5aria23rpc31XmlRpcRequestParserStateMachine15pushMemberStateEv
libaria2.so.0:_ZN5aria23rpc31XmlRpcRequestParserStateMachine15pushParamsStateEv
libaria2.so.0:_ZN5aria23rpc31XmlRpcRequestParserStateMachine15pushStringStateEv
libaria2.so.0:_ZN5aria23rpc31XmlRpcRequestParserStateMachine15pushStructStateEv
libaria2.so.0:_ZN5aria23rpc31XmlRpcRequestParserStateMachine19pushArrayValueStateEv
libaria2.so.0:_ZN5aria23rpc31XmlRpcRequestParserStateMachine19pushMethodCallStateEv
libaria2.so.0:_ZN5aria23rpc31XmlRpcRequestParserStateMachine19pushMethodNameStateEv
libaria2.so.0:_ZN5aria23rpc31XmlRpcRequestParserStateMachine19setCurrentFrameNameENSt7__cxx1112basic_stringIcSt11char_traitsIcESaIcEEE
libaria2.so.0:_ZN5aria23rpc31XmlRpcRequestParserStateMachine20popCurrentFrameValueEv
libaria2.so.0:_ZN5aria23rpc31XmlRpcRequestParserStateMachine20setCurrentFrameValueESt10unique_ptrINS_9ValueBaseESt14default_deleteIS3_EE
libaria2.so.0:_ZN5aria23rpc31XmlRpcRequestParserStateMachine23pushUnknownElementStateEv
libaria2.so.0:_ZN5aria23rpc31XmlRpcRequestParserStateMachine5resetEv
libaria2.so.0:_ZN5aria23rpc31XmlRpcRequestParserStateMachine9pushFrameEv
libaria2.so.0:_ZN5aria23rpc31XmlRpcRequestParserStateMachineC1Ev
libaria2.so.0:_ZN5aria23rpc31XmlRpcRequestParserStateMachineC2Ev
libaria2.so.0:_ZN5aria23rpc31XmlRpcRequestParserStateMachineD0Ev
libaria2.so.0:_ZN5aria23rpc31XmlRpcRequestParserStateMachineD1Ev
libaria2.so.0:_ZN5aria23rpc31XmlRpcRequestParserStateMachineD2Ev
libaria2.so.0:_ZN5aria23rpc32SystemListNotificationsRpcMethod7executeENS0_10RpcRequestEPNS_14DownloadEngineE
libaria2.so.0:_ZN5aria23rpc32SystemListNotificationsRpcMethod7processERKNS0_10RpcRequestEPNS_14DownloadEngineE
libaria2.so.0:_ZN5aria23rpc34ArrayValueXmlRpcRequestParserState10endElementEPNS0_31XmlRpcRequestParserStateMachineEPKcNSt7__cxx1112basic_stringIcSt11char_traitsIcESaIcEEE
libaria2.so.0:_ZN5aria23rpc34MethodCallXmlRpcRequestParserState12beginElementEPNS0_31XmlRpcRequestParserStateMachineEPKcRKSt6vectorINS_7XmlAttrESaIS7_EE
libaria2.so.0:_ZN5aria23rpc34MethodNameXmlRpcRequestParserState10endElementEPNS0_31XmlRpcRequestParserStateMachineEPKcNSt7__cxx1112basic_stringIcSt11char_traitsIcESaIcEEE
libaria2.so.0:_ZN5aria23rpc34MethodNameXmlRpcRequestParserState12beginElementEPNS0_31XmlRpcRequestParserStateMachineEPKcRKSt6vectorINS_7XmlAttrESaIS7_EE
libaria2.so.0:_ZN5aria23rpc38UnknownElementXmlRpcRequestParserState12beginElementEPNS0_31XmlRpcRequestParserStateMachineEPKcRKSt6vectorINS_7XmlAttrESaIS7_EE
libaria2.so.0:_ZN5aria23rpc5toXmlB5cxx11ERKNS0_11RpcResponseEb
libaria2.so.0:_ZN5aria23rpc6toJsonERKNS0_11RpcResponseERKNSt7__cxx1112basic_stringIcSt11char_traitsIcESaIcEEEb
libaria2.so.0:_ZN5aria23rpc9RpcMethod19createErrorResponseERKNS_9ExceptionERKNS0_10RpcRequestE
libaria2.so.0:_ZN5aria23rpc9RpcMethod19gatherRequestOptionEPNS_6OptionEPKNS_4DictE
libaria2.so.0:_ZN5aria23rpc9RpcMethod22gatherChangeableOptionEPNS_6OptionES3_PKNS_4DictE
libaria2.so.0:_ZN5aria23rpc9RpcMethod28gatherChangeableGlobalOptionEPNS_6OptionEPKNS_4DictE
libaria2.so.0:_ZN5aria23rpc9RpcMethod33gatherChangeableOptionForReservedEPNS_6OptionEPKNS_4DictE
libaria2.so.0:_ZN5aria23rpc9RpcMethod7executeENS0_10RpcRequestEPNS_14DownloadEngineE
libaria2.so.0:_ZN5aria23rpc9RpcMethod9authorizeERNS0_10RpcRequestEPNS_14DownloadEngineE
libaria2.so.0:_ZN5aria23rpc9RpcMethodC1Ev
libaria2.so.0:_ZN5aria23rpc9RpcMethodC2Ev
libaria2.so.0:_ZN5aria23rpc9RpcMethodD0Ev
libaria2.so.0:_ZN5aria23rpc9RpcMethodD1Ev
libaria2.so.0:_ZN5aria23rpc9RpcMethodD2Ev
libaria2.so.0:_ZN5aria23rpc9getMethodERKNSt7__cxx1112basic_stringIcSt11char_traitsIcESaIcEEE
libaria2.so.0:_ZN5aria23runEPNS_7SessionENS_8RUN_MODEE
libaria2.so.0:_ZN5aria23uri13normalizePathENSt7__cxx1112basic_stringIcSt11char_traitsIcESaIcEEE
libaria2.so.0:_ZN5aria23uri14getFieldStringB5cxx11ERK16uri_split_resultiPKc
libaria2.so.0:_ZN5aria23uri4swapERNS0_9UriStructES2_
libaria2.so.0:_ZN5aria23uri5parseERNS0_9UriStructERKNSt7__cxx1112basic_stringIcSt11char_traitsIcESaIcEEE
libaria2.so.0:_ZN5aria23uri7joinUriERKNSt7__cxx1112basic_stringIcSt11char_traitsIcESaIcEEES8_
libaria2.so.0:_ZN5aria23uri8joinPathERKNSt7__cxx1112basic_stringIcSt11char_traitsIcESaIcEEES8_
libaria2.so.0:_ZN5aria23uri9UriStruct4swapERS1_
libaria2.so.0:_ZN5aria23uri9UriStructC1ERKS1_
libaria2.so.0:_ZN5aria23uri9UriStructC1Ev
libaria2.so.0:_ZN5aria23uri9UriStructC2ERKS1_
libaria2.so.0:_ZN5aria23uri9UriStructC2Ev
libaria2.so.0:_ZN5aria23uri9UriStructD1Ev
libaria2.so.0:_ZN5aria23uri9UriStructD2Ev
libaria2.so.0:_ZN5aria23uri9UriStructaSERKS1_
libaria2.so.0:_ZN5aria23uri9constructB5cxx11ERKNS0_9UriStructE
libaria2.so.0:_ZN5aria23xml9XmlParser10parseFinalEPKcm
libaria2.so.0:_ZN5aria23xml9XmlParser11parseUpdateEPKcm
libaria2.so.0:_ZN5aria23xml9XmlParser5resetEv
libaria2.so.0:_ZN5aria23xml9XmlParserC1EPNS_18ParserStateMachineE
libaria2.so.0:_ZN5aria23xml9XmlParserC2EPNS_18ParserStateMachineE
libaria2.so.0:_ZN5aria23xml9XmlParserD1Ev
libaria2.so.0:_ZN5aria23xml9XmlParserD2Ev
libaria2.so.0:_ZN5aria23xml9parseFileERKNSt7__cxx1112basic_stringIcSt11char_traitsIcESaIcEEEPNS_18ParserStateMachineE
libaria2.so.0:_ZN5aria240OptimizeConcurrentDownloadsOptionHandlerC1EPKNS_4PrefEPKcRKNSt7__cxx1112basic_stringIcSt11char_traitsIcESaIcEEEc
libaria2.so.0:_ZN5aria240OptimizeConcurrentDownloadsOptionHandlerC2EPKNS_4PrefEPKcRKNSt7__cxx1112basic_stringIcSt11char_traitsIcESaIcEEEc
libaria2.so.0:_ZN5aria24Bool5gTrueEv
libaria2.so.0:_ZN5aria24Bool6gFalseEv
libaria2.so.0:_ZN5aria24BoolC1Eb
libaria2.so.0:_ZN5aria24BoolC2Eb
libaria2.so.0:_ZN5aria24Dict1gEv
libaria2.so.0:_ZN5aria24Dict3endB5cxx11Ev
libaria2.so.0:_ZN5aria24Dict3putENSt7__cxx1112basic_stringIcSt11char_traitsIcESaIcEEES6_
libaria2.so.0:_ZN5aria24Dict3putENSt7__cxx1112basic_stringIcSt11char_traitsIcESaIcEEESt10unique_ptrINS_9ValueBaseESt14default_deleteIS8_EE
libaria2.so.0:_ZN5aria24Dict5beginB5cxx11Ev
libaria2.so.0:_ZN5aria24Dict8popValueERKNSt7__cxx1112basic_stringIcSt11char_traitsIcESaIcEEE
libaria2.so.0:_ZN5aria24Dict9removeKeyERKNSt7__cxx1112basic_stringIcSt11char_traitsIcESaIcEEE
libaria2.so.0:_ZN5aria24DictC1Ev
libaria2.so.0:_ZN5aria24DictC2Ev
libaria2.so.0:_ZN5aria24File13getCurrentDirB5cxx11Ev
libaria2.so.0:_ZN5aria24File15getModifiedTimeEv
libaria2.so.0:_ZN5aria24File17getPathSeparatorsEv
libaria2.so.0:_ZN5aria24File4modeEv
libaria2.so.0:_ZN5aria24File4sizeEv
libaria2.so.0:_ZN5aria24File5isDirERKNSt7__cxx1112basic_stringIcSt11char_traitsIcESaIcEEE
libaria2.so.0:_ZN5aria24File5isDirEv
libaria2.so.0:_ZN5aria24File6existsERNSt7__cxx1112basic_stringIcSt11char_traitsIcESaIcEEE
libaria2.so.0:_ZN5aria24File6existsEv
libaria2.so.0:_ZN5aria24File6isFileEv
libaria2.so.0:_ZN5aria24File6mkdirsEv
libaria2.so.0:_ZN5aria24File6removeEv
libaria2.so.0:_ZN5aria24File8fillStatER4stat
libaria2.so.0:_ZN5aria24File8renameToERKNSt7__cxx1112basic_stringIcSt11char_traitsIcESaIcEEE
libaria2.so.0:_ZN5aria24FileC1ERKNSt7__cxx1112basic_stringIcSt11char_traitsIcESaIcEEE
libaria2.so.0:_ZN5aria24FileC1ERKS0_
libaria2.so.0:_ZN5aria24FileC2ERKNSt7__cxx1112basic_stringIcSt11char_traitsIcESaIcEEE
libaria2.so.0:_ZN5aria24FileC2ERKS0_
libaria2.so.0:_ZN5aria24FileD1Ev
libaria2.so.0:_ZN5aria24FileD2Ev
libaria2.so.0:_ZN5aria24FileaSERKS0_
libaria2.so.0:_ZN5aria24List1gEv
libaria2.so.0:_ZN5aria24List3endEv
libaria2.so.0:_ZN5aria24List3setEmSt10unique_ptrINS_9ValueBaseESt14default_deleteIS2_EE
libaria2.so.0:_ZN5aria24List5beginEv
libaria2.so.0:_ZN5aria24List6appendENSt7__cxx1112basic_stringIcSt11char_traitsIcESaIcEEE
libaria2.so.0:_ZN5aria24List6appendESt10unique_ptrINS_9ValueBaseESt14default_deleteIS2_EE
libaria2.so.0:_ZN5aria24List8pop_backEv
libaria2.so.0:_ZN5aria24List9pop_frontEv
libaria2.so.0:_ZN5aria24ListC1Ev
libaria2.so.0:_ZN5aria24ListC2Ev
libaria2.so.0:_ZN5aria24ListlsESt10unique_ptrINS_9ValueBaseESt14default_deleteIS2_EE
libaria2.so.0:_ZN5aria24Null1gEv
libaria2.so.0:_ZN5aria24NullC1Ev
libaria2.so.0:_ZN5aria24NullC2Ev
libaria2.so.0:_ZN5aria24Peer11setBitfieldEPKhm
libaria2.so.0:_ZN5aria24Peer12optUnchokingEb
libaria2.so.0:_ZN5aria24Peer12setExtensionEih
libaria2.so.0:_ZN5aria24Peer12updateSeederEv
libaria2.so.0:_ZN5aria24Peer13setDHTEnabledEb
libaria2.so.0:_ZN5aria24Peer14peerInterestedEb
libaria2.so.0:_ZN5aria24Peer14setAllBitfieldEv
libaria2.so.0:_ZN5aria24Peer14updateBitfieldEmi
libaria2.so.0:_ZN5aria24Peer14updateDownloadEi
libaria2.so.0:_ZN5aria24Peer15chokingRequiredEb
libaria2.so.0:_ZN5aria24Peer15setIncomingPeerEb
libaria2.so.0:_ZN5aria24Peer17addAmAllowedIndexEm
libaria2.so.0:_ZN5aria24Peer17updateUploadSpeedEi
libaria2.so.0:_ZN5aria24Peer18updateUploadLengthEi
libaria2.so.0:_ZN5aria24Peer19addPeerAllowedIndexEm
libaria2.so.0:_ZN5aria24Peer19setFirstContactTimeERKNS_5TimerE
libaria2.so.0:_ZN5aria24Peer20calculateUploadSpeedEv
libaria2.so.0:_ZN5aria24Peer22calculateDownloadSpeedEv
libaria2.so.0:_ZN5aria24Peer22releaseSessionResourceEv
libaria2.so.0:_ZN5aria24Peer22setBtMessageDispatcherEPNS_19BtMessageDispatcherE
libaria2.so.0:_ZN5aria24Peer23allocateSessionResourceEil
libaria2.so.0:_ZN5aria24Peer23setFastExtensionEnabledEb
libaria2.so.0:_ZN5aria24Peer26reconfigureSessionResourceEil
libaria2.so.0:_ZN5aria24Peer27setExtendedMessagingEnabledEb
libaria2.so.0:_ZN5aria24Peer6usedByEl
libaria2.so.0:_ZN5aria24Peer8snubbingEb
libaria2.so.0:_ZN5aria24Peer9setPeerIdEPKh
libaria2.so.0:_ZN5aria24Peer9startDropEv
libaria2.so.0:_ZN5aria24PeerC1ENSt7__cxx1112basic_stringIcSt11char_traitsIcESaIcEEEtb
libaria2.so.0:_ZN5aria24PeerC2ENSt7__cxx1112basic_stringIcSt11char_traitsIcESaIcEEEtb
libaria2.so.0:_ZN5aria24PeerD1Ev
libaria2.so.0:_ZN5aria24PeerD2Ev
libaria2.so.0:_ZN5aria24PrefC1EPKcm
libaria2.so.0:_ZN5aria24PrefC2EPKcm
libaria2.so.0:_ZN5aria24Time11parseRFC850ERKNSt7__cxx1112basic_stringIcSt11char_traitsIcESaIcEEE
libaria2.so.0:_ZN5aria24Time12parseAsctimeERKNSt7__cxx1112basic_stringIcSt11char_traitsIcESaIcEEE
libaria2.so.0:_ZN5aria24Time12parseRFC1123ERKNSt7__cxx1112basic_stringIcSt11char_traitsIcESaIcEEE
libaria2.so.0:_ZN5aria24Time13parseHTTPDateERKNSt7__cxx1112basic_stringIcSt11char_traitsIcESaIcEEE
libaria2.so.0:_ZN5aria24Time14parseRFC850ExtERKNSt7__cxx1112basic_stringIcSt11char_traitsIcESaIcEEE
libaria2.so.0:_ZN5aria24Time15parseRFC1123AltERKNSt7__cxx1112basic_stringIcSt11char_traitsIcESaIcEEE
libaria2.so.0:_ZN5aria24Time16setTimeFromEpochEl
libaria2.so.0:_ZN5aria24Time5parseERKNSt7__cxx1112basic_stringIcSt11char_traitsIcESaIcEEES8_
libaria2.so.0:_ZN5aria24Time5resetEv
libaria2.so.0:_ZN5aria24TimeC1El
libaria2.so.0:_ZN5aria24TimeC1Ev
libaria2.so.0:_ZN5aria24TimeC2El
libaria2.so.0:_ZN5aria24TimeC2Ev
libaria2.so.0:_ZN5aria24json10JsonParser10onArrayEndEv
libaria2.so.0:_ZN5aria24json10JsonParser10onValueEndEv
libaria2.so.0:_ZN5aria24json10JsonParser10parseFinalEPKcm
libaria2.so.0:_ZN5aria24json10JsonParser11onNumberEndEv
libaria2.so.0:_ZN5aria24json10JsonParser11onObjectEndEv
libaria2.so.0:_ZN5aria24json10JsonParser11onStringEndEv
libaria2.so.0:_ZN5aria24json10JsonParser11parseUpdateEPKcm
libaria2.so.0:_ZN5aria24json10JsonParser14consumeUnicodeEc
libaria2.so.0:_ZN5aria24json10JsonParser14runEndCallbackEi
libaria2.so.0:_ZN5aria24json10JsonParser15runBoolCallbackEb
libaria2.so.0:_ZN5aria24json10JsonParser16runBeginCallbackEi
libaria2.so.0:_ZN5aria24json10JsonParser17runNumberCallbackElii
libaria2.so.0:_ZN5aria24json10JsonParser19consumeLowSurrogateEc
libaria2.so.0:_ZN5aria24json10JsonParser21runCharactersCallbackEPKcm
libaria2.so.0:_ZN5aria24json10JsonParser5resetEv
libaria2.so.0:_ZN5aria24json10JsonParser8popStateEv
libaria2.so.0:_ZN5aria24json10JsonParser9onBoolEndEv
libaria2.so.0:_ZN5aria24json10JsonParser9onNullEndEv
libaria2.so.0:_ZN5aria24json10JsonParser9pushStateEi
libaria2.so.0:_ZN5aria24json10JsonParserC1EPNS_24StructParserStateMachineE
libaria2.so.0:_ZN5aria24json10JsonParserC2EPNS_24StructParserStateMachineE
libaria2.so.0:_ZN5aria24json10JsonParserD1Ev
libaria2.so.0:_ZN5aria24json10JsonParserD2Ev
libaria2.so.0:_ZN5aria24json10jsonEscapeERKNSt7__cxx1112basic_stringIcSt11char_traitsIcESaIcEEE
libaria2.so.0:_ZN5aria24json12JsonGetParamC1ERKNSt7__cxx1112basic_stringIcSt11char_traitsIcESaIcEEES9_
libaria2.so.0:_ZN5aria24json12JsonGetParamC2ERKNSt7__cxx1112basic_stringIcSt11char_traitsIcESaIcEEES9_
libaria2.so.0:_ZN5aria24json15decodeGetParamsERKNSt7__cxx1112basic_stringIcSt11char_traitsIcESaIcEEE
libaria2.so.0:_ZN5aria24json6encodeB5cxx11EPKNS_9ValueBaseE
libaria2.so.0:_ZN5aria24swapERNS_17MetalinkHttpEntryES1_
libaria2.so.0:_ZN5aria24swapERNS_18BtSeederStateChoke9PeerEntryES2_
libaria2.so.0:_ZN5aria24swapERNS_19BtLeecherStateChoke9PeerEntryES2_
libaria2.so.0:_ZN5aria24swapERNS_8ChecksumES1_
libaria2.so.0:_ZN5aria24util10abbrevSizeB5cxx11El
libaria2.so.0:_ZN5aria24util10escapePathERKNSt7__cxx1112basic_stringIcSt11char_traitsIcESaIcEEE
libaria2.so.0:_ZN5aria24util10getDHTFileB5cxx11Eb
libaria2.so.0:_ZN5aria24util10getHomeDirB5cxx11Ev
libaria2.so.0:_ZN5aria24util10htmlEscapeERKNSt7__cxx1112basic_stringIcSt11char_traitsIcESaIcEEE
libaria2.so.0:_ZN5aria24util10isHexDigitERKNSt7__cxx1112basic_stringIcSt11char_traitsIcESaIcEEE
libaria2.so.0:_ZN5aria24util10isHexDigitEc
libaria2.so.0:_ZN5aria24util10makeStringB5cxx11EPKc
libaria2.so.0:_ZN5aria24util10startsWithERKNSt7__cxx1112basic_stringIcSt11char_traitsIcESaIcEEEPKc
libaria2.so.0:_ZN5aria24util10startsWithERKNSt7__cxx1112basic_stringIcSt11char_traitsIcESaIcEEES8_
libaria2.so.0:_ZN5aria24util11getRealSizeERKNSt7__cxx1112basic_stringIcSt11char_traitsIcESaIcEEE
libaria2.so.0:_ZN5aria24util11isIso8859p1Eh
libaria2.so.0:_ZN5aria24util11istartsWithERKNSt7__cxx1112basic_stringIcSt11char_traitsIcESaIcEEEPKc
libaria2.so.0:_ZN5aria24util11istartsWithERKNSt7__cxx1112basic_stringIcSt11char_traitsIcESaIcEEES8_
libaria2.so.0:_ZN5aria24util11toLowerCharEc
libaria2.so.0:_ZN5aria24util11toUpperCharEc
libaria2.so.0:_ZN5aria24util12safeStrerrorB5cxx11Ei
libaria2.so.0:_ZN5aria24util12toTLSVersionERKNSt7__cxx1112basic_stringIcSt11char_traitsIcESaIcEEE
libaria2.so.0:_ZN5aria24util13encodeNonUtf8ERKNSt7__cxx1112basic_stringIcSt11char_traitsIcESaIcEEE
libaria2.so.0:_ZN5aria24util13getConfigFileB5cxx11Ev
libaria2.so.0:_ZN5aria24util13hexCharToUIntEh
libaria2.so.0:_ZN5aria24util13isNumericHostERKNSt7__cxx1112basic_stringIcSt11char_traitsIcESaIcEEE
libaria2.so.0:_ZN5aria24util13percentDecodeEN9__gnu_cxx17__normal_iteratorIPKcNSt7__cxx1112basic_stringIcSt11char_traitsIcESaIcEEEEESB_
libaria2.so.0:_ZN5aria24util13percentEncodeB5cxx11EPKhm
libaria2.so.0:_ZN5aria24util13percentEncodeERKNSt7__cxx1112basic_stringIcSt11char_traitsIcESaIcEEE
libaria2.so.0:_ZN5aria24util14createSafePathERKNSt7__cxx1112basic_stringIcSt11char_traitsIcESaIcEEE
libaria2.so.0:_ZN5aria24util14createSafePathERKNSt7__cxx1112basic_stringIcSt11char_traitsIcESaIcEEES8_
libaria2.so.0:_ZN5aria24util14parseIndexPathERKNSt7__cxx1112basic_stringIcSt11char_traitsIcESaIcEEE
libaria2.so.0:_ZN5aria24util15convertBitfieldEPNS_11BitfieldManEPKS1_
libaria2.so.0:_ZN5aria24util15inSameCidrBlockERKNSt7__cxx1112basic_stringIcSt11char_traitsIcESaIcEEES8_m
libaria2.so.0:_ZN5aria24util15iso8859p1ToUtf8B5cxx11EPKcm
libaria2.so.0:_ZN5aria24util15iso8859p1ToUtf8ERKNSt7__cxx1112basic_stringIcSt11char_traitsIcESaIcEEE
libaria2.so.0:_ZN5aria24util15make_fd_cloexecEi
libaria2.so.0:_ZN5aria24util15parseIntNoThrowERiRKNSt7__cxx1112basic_stringIcSt11char_traitsIcESaIcEEEi
libaria2.so.0:_ZN5aria24util16createIndexPathsB5cxx11ERSi
libaria2.so.0:_ZN5aria24util16inPrivateAddressERKNSt7__cxx1112basic_stringIcSt11char_traitsIcESaIcEEE
libaria2.so.0:_ZN5aria24util16parseIntSegmentsERKNSt7__cxx1112basic_stringIcSt11char_traitsIcESaIcEEE
libaria2.so.0:_ZN5aria24util16parseUIntNoThrowERjRKNSt7__cxx1112basic_stringIcSt11char_traitsIcESaIcEEEi
libaria2.so.0:_ZN5aria24util16tlsHostnameMatchERKNSt7__cxx1112basic_stringIcSt11char_traitsIcESaIcEEES8_
libaria2.so.0:_ZN5aria24util17generateRandomKeyEPh
libaria2.so.0:_ZN5aria24util17inRFC5987AttrCharEc
libaria2.so.0:_ZN5aria24util17parseLLIntNoThrowERlRKNSt7__cxx1112basic_stringIcSt11char_traitsIcESaIcEEEi
libaria2.so.0:_ZN5aria24util17percentEncodeMiniERKNSt7__cxx1112basic_stringIcSt11char_traitsIcESaIcEEE
libaria2.so.0:_ZN5aria24util18detectDirTraversalERKNSt7__cxx1112basic_stringIcSt11char_traitsIcESaIcEEE
libaria2.so.0:_ZN5aria24util18fixTaintedBasenameERKNSt7__cxx1112basic_stringIcSt11char_traitsIcESaIcEEE
libaria2.so.0:_ZN5aria24util18generateRandomDataEPhm
libaria2.so.0:_ZN5aria24util18getNumericNameInfoEPK8sockaddrj
libaria2.so.0:_ZN5aria24util18inRFC2616HttpTokenEc
libaria2.so.0:_ZN5aria24util18noProxyDomainMatchERKNSt7__cxx1112basic_stringIcSt11char_traitsIcESaIcEEES8_
libaria2.so.0:_ZN5aria24util18parseDoubleNoThrowERdRKNSt7__cxx1112basic_stringIcSt11char_traitsIcESaIcEEE
libaria2.so.0:_ZN5aria24util20executeHookByOptNameEPKNS_12RequestGroupEPKNS_6OptionEPKNS_4PrefE
libaria2.so.0:_ZN5aria24util20executeHookByOptNameERKSt10shared_ptrINS_12RequestGroupEEPKNS_6OptionEPKNS_4PrefE
libaria2.so.0:_ZN5aria24util20inRFC2978MIMECharsetEc
libaria2.so.0:_ZN5aria24util20torrentPercentEncodeB5cxx11EPKhm
libaria2.so.0:_ZN5aria24util20torrentPercentEncodeERKNSt7__cxx1112basic_stringIcSt11char_traitsIcESaIcEEE
libaria2.so.0:_ZN5aria24util21allocateAlignedMemoryEmm
libaria2.so.0:_ZN5aria24util22inRFC3986ReservedCharsEc
libaria2.so.0:_ZN5aria24util22setGlobalSignalHandlerEiP10__sigset_tPFviEi
libaria2.so.0:_ZN5aria24util24inRFC3986UnreservedCharsEc
libaria2.so.0:_ZN5aria24util25parsePrioritizePieceRangeERSt6vectorImSaImEERKNSt7__cxx1112basic_stringIcSt11char_traitsIcESaIcEEERKS1_ISt10shared_ptrINS_9FileEntryEESaISF_EEml
libaria2.so.0:_ZN5aria24util25parse_content_dispositionEPcmPPKcPmS3_mb
libaria2.so.0:_ZN5aria24util29getContentDispositionFilenameERKNSt7__cxx1112basic_stringIcSt11char_traitsIcESaIcEEEb
libaria2.so.0:_ZN5aria24util4itosB5cxx11Elb
libaria2.so.0:_ZN5aria24util5isLwsEc
libaria2.so.0:_ZN5aria24util5sleepEl
libaria2.so.0:_ZN5aria24util5stripERKNSt7__cxx1112basic_stringIcSt11char_traitsIcESaIcEEEPKc
libaria2.so.0:_ZN5aria24util5toHexB5cxx11EPKcm
libaria2.so.0:_ZN5aria24util5toHexB5cxx11EPKhm
libaria2.so.0:_ZN5aria24util5toHexERKNSt7__cxx1112basic_stringIcSt11char_traitsIcESaIcEEE
libaria2.so.0:_ZN5aria24util6difftvE7timevalS1_
libaria2.so.0:_ZN5aria24util6isCRLFEc
libaria2.so.0:_ZN5aria24util6isUtf8ERKNSt7__cxx1112basic_stringIcSt11char_traitsIcESaIcEEE
libaria2.so.0:_ZN5aria24util6mkdirsERKNSt7__cxx1112basic_stringIcSt11char_traitsIcESaIcEEE
libaria2.so.0:_ZN5aria24util6saveAsERKNSt7__cxx1112basic_stringIcSt11char_traitsIcESaIcEEES8_b
libaria2.so.0:_ZN5aria24util6secfmtB5cxx11El
libaria2.so.0:_ZN5aria24util6strieqERKNSt7__cxx1112basic_stringIcSt11char_traitsIcESaIcEEEPKc
libaria2.so.0:_ZN5aria24util6strieqERKNSt7__cxx1112basic_stringIcSt11char_traitsIcESaIcEEES8_
libaria2.so.0:_ZN5aria24util6usleepEl
libaria2.so.0:_ZN5aria24util7isAlphaEc
libaria2.so.0:_ZN5aria24util7isDigitEc
libaria2.so.0:_ZN5aria24util7replaceERKNSt7__cxx1112basic_stringIcSt11char_traitsIcESaIcEEES8_S8_
libaria2.so.0:_ZN5aria24util7strlessEPKcS2_
libaria2.so.0:_ZN5aria24util7toLowerENSt7__cxx1112basic_stringIcSt11char_traitsIcESaIcEEE
libaria2.so.0:_ZN5aria24util7toUpperENSt7__cxx1112basic_stringIcSt11char_traitsIcESaIcEEE
libaria2.so.0:_ZN5aria24util8applyDirERKNSt7__cxx1112basic_stringIcSt11char_traitsIcESaIcEEES8_
libaria2.so.0:_ZN5aria24util8endsWithERKNSt7__cxx1112basic_stringIcSt11char_traitsIcESaIcEEEPKc
libaria2.so.0:_ZN5aria24util8endsWithERKNSt7__cxx1112basic_stringIcSt11char_traitsIcESaIcEEES8_
libaria2.so.0:_ZN5aria24util8security4HMAC12createRandomERKNSt7__cxx1112basic_stringIcSt11char_traitsIcESaIcEEE
libaria2.so.0:_ZN5aria24util8security4HMAC8supportsERKNSt7__cxx1112basic_stringIcSt11char_traitsIcESaIcEEE
libaria2.so.0:_ZN5aria24util8security4HMACC1ERKNSt7__cxx1112basic_stringIcSt11char_traitsIcESaIcEEEPKcm
libaria2.so.0:_ZN5aria24util8security4HMACC2ERKNSt7__cxx1112basic_stringIcSt11char_traitsIcESaIcEEEPKcm
libaria2.so.0:_ZN5aria24util8security6PBKDF2EPNS1_4HMACEPKcmmm
libaria2.so.0:_ZN5aria24util8security7compareEPKhS3_m
libaria2.so.0:_ZN5aria24util8security7compareEhh
libaria2.so.0:_ZN5aria24util8toStringB5cxx11ERKSt10shared_ptrINS_12BinaryStreamEE
libaria2.so.0:_ZN5aria24util9difftvsecE7timevalS1_
libaria2.so.0:_ZN5aria24util9getXDGDirERKNSt7__cxx1112basic_stringIcSt11char_traitsIcESaIcEEES8_
libaria2.so.0:_ZN5aria24util9iendsWithERKNSt7__cxx1112basic_stringIcSt11char_traitsIcESaIcEEEPKc
libaria2.so.0:_ZN5aria24util9iendsWithERKNSt7__cxx1112basic_stringIcSt11char_traitsIcESaIcEEES8_
libaria2.so.0:_ZN5aria24util9lowercaseERNSt7__cxx1112basic_stringIcSt11char_traitsIcESaIcEEE
libaria2.so.0:_ZN5aria24util9uppercaseERNSt7__cxx1112basic_stringIcSt11char_traitsIcESaIcEEE
libaria2.so.0:_ZN5aria25Netrc16addAuthenticatorESt10unique_ptrINS_13AuthenticatorESt14default_deleteIS2_EE
libaria2.so.0:_ZN5aria25Netrc18storeAuthenticatorESt10unique_ptrINS_13AuthenticatorESt14default_deleteIS2_EE
libaria2.so.0:_ZN5aria25Netrc5parseERKNSt7__cxx1112basic_stringIcSt11char_traitsIcESaIcEEE
libaria2.so.0:_ZN5aria25NetrcC1Ev
libaria2.so.0:_ZN5aria25NetrcC2Ev
libaria2.so.0:_ZN5aria25NetrcD1Ev
libaria2.so.0:_ZN5aria25NetrcD2Ev
libaria2.so.0:_ZN5aria25Piece10removeUserEl
libaria2.so.0:_ZN5aria25Piece10updateHashElPKhm
libaria2.so.0:_ZN5aria25Piece11cancelBlockEm
libaria2.so.0:_ZN5aria25Piece11initWrCacheEPNS_11WrDiskCacheERKSt10shared_ptrINS_11DiskAdaptorEE
libaria2.so.0:_ZN5aria25Piece11reconfigureEl
libaria2.so.0:_ZN5aria25Piece11setAllBlockEv
libaria2.so.0:_ZN5aria25Piece11setBitfieldEPKhm
libaria2.so.0:_ZN5aria25Piece11setHashTypeERKNSt7__cxx1112basic_stringIcSt11char_traitsIcESaIcEEE
libaria2.so.0:_ZN5aria25Piece12clearWrCacheEPNS_11WrDiskCacheE
libaria2.so.0:_ZN5aria25Piece12flushWrCacheEPNS_11WrDiskCacheE
libaria2.so.0:_ZN5aria25Piece13appendWrCacheEPNS_11WrDiskCacheElPKhm
libaria2.so.0:_ZN5aria25Piece13clearAllBlockEPNS_11WrDiskCacheE
libaria2.so.0:_ZN5aria25Piece13completeBlockEm
libaria2.so.0:_ZN5aria25Piece13updateWrCacheEPNS_11WrDiskCacheEPhmmml
libaria2.so.0:_ZN5aria25Piece14releaseWrCacheEPNS_11WrDiskCacheE
libaria2.so.0:_ZN5aria25Piece18destroyHashContextEv
libaria2.so.0:_ZN5aria25Piece18getCompletedLengthEv
libaria2.so.0:_ZN5aria25Piece20getDigestWithWrCacheB5cxx11EmRKSt10shared_ptrINS_11DiskAdaptorEE
libaria2.so.0:_ZN5aria25Piece7addUserEl
libaria2.so.0:_ZN5aria25Piece9getDigestB5cxx11Ev
libaria2.so.0:_ZN5aria25PieceC1Emli
libaria2.so.0:_ZN5aria25PieceC1Ev
libaria2.so.0:_ZN5aria25PieceC2Emli
libaria2.so.0:_ZN5aria25PieceC2Ev
libaria2.so.0:_ZN5aria25PieceD1Ev
libaria2.so.0:_ZN5aria25PieceD2Ev
libaria2.so.0:_ZN5aria25RangeC1ERKS0_
libaria2.so.0:_ZN5aria25RangeC1Elll
libaria2.so.0:_ZN5aria25RangeC1Ev
libaria2.so.0:_ZN5aria25RangeC2ERKS0_
libaria2.so.0:_ZN5aria25RangeC2Elll
libaria2.so.0:_ZN5aria25RangeC2Ev
libaria2.so.0:_ZN5aria25RangeD1Ev
libaria2.so.0:_ZN5aria25RangeD2Ev
libaria2.so.0:_ZN5aria25RangeaSERKS0_
libaria2.so.0:_ZN5aria25Timer5resetEv
libaria2.so.0:_ZN5aria25TimerC1ERKNSt6chrono10time_pointINS1_3_V212steady_clockENS1_8durationIlSt5ratioILl1ELl1000000000EEEEEE
libaria2.so.0:_ZN5aria25TimerC1Ev
libaria2.so.0:_ZN5aria25TimerC2ERKNSt6chrono10time_pointINS1_3_V212steady_clockENS1_8durationIlSt5ratioILl1ELl1000000000EEEEEE
libaria2.so.0:_ZN5aria25TimerC2Ev
libaria2.so.0:_ZN5aria25writeERKSt10shared_ptrINS_10OutputFileEERKNS_13OptionHandlerE
libaria2.so.0:_ZN5aria26Cookie7setNameENSt7__cxx1112basic_stringIcSt11char_traitsIcESaIcEEE
libaria2.so.0:_ZN5aria26Cookie7setPathENSt7__cxx1112basic_stringIcSt11char_traitsIcESaIcEEE
libaria2.so.0:_ZN5aria26Cookie8setValueENSt7__cxx1112basic_stringIcSt11char_traitsIcESaIcEEE
libaria2.so.0:_ZN5aria26Cookie9setDomainENSt7__cxx1112basic_stringIcSt11char_traitsIcESaIcEEE
libaria2.so.0:_ZN5aria26CookieC1ENSt7__cxx1112basic_stringIcSt11char_traitsIcESaIcEEES6_lbS6_bS6_bbl
libaria2.so.0:_ZN5aria26CookieC1Ev
libaria2.so.0:_ZN5aria26CookieC2ENSt7__cxx1112basic_stringIcSt11char_traitsIcESaIcEEES6_lbS6_bS6_bbl
libaria2.so.0:_ZN5aria26CookieC2Ev
libaria2.so.0:_ZN5aria26IOFile13supportsColorEv
libaria2.so.0:_ZN5aria26IOFile3eofEv
libaria2.so.0:_ZN5aria26IOFile4getsEPci
libaria2.so.0:_ZN5aria26IOFile4readEPvm
libaria2.so.0:_ZN5aria26IOFile5closeEv
libaria2.so.0:_ZN5aria26IOFile5flushEv
libaria2.so.0:_ZN5aria26IOFile5getsnEPci
libaria2.so.0:_ZN5aria26IOFile5writeEPKc
libaria2.so.0:_ZN5aria26IOFile5writeEPKvm
libaria2.so.0:_ZN5aria26IOFile7getLineB5cxx11Ev
libaria2.so.0:_ZN5aria26IOFile7vprintfEPKcP13__va_list_tag
libaria2.so.0:_ZN5aria26IOFile8transferERSo
libaria2.so.0:_ZN5aria26Logger12levelEnabledENS0_5LEVELE
libaria2.so.0:_ZN5aria26Logger14fileLogEnabledENS0_5LEVELE
libaria2.so.0:_ZN5aria26Logger14setColorOutputEb
libaria2.so.0:_ZN5aria26Logger16setConsoleOutputEb
libaria2.so.0:_ZN5aria26Logger17consoleLogEnabledENS0_5LEVELE
libaria2.so.0:_ZN5aria26Logger3logENS0_5LEVELEPKciRKNSt7__cxx1112basic_stringIcSt11char_traitsIcESaIcEEE
libaria2.so.0:_ZN5aria26Logger3logENS0_5LEVELEPKciRKNSt7__cxx1112basic_stringIcSt11char_traitsIcESaIcEEERKNS_9ExceptionE
libaria2.so.0:_ZN5aria26Logger3logENS0_5LEVELEPKciS3_
libaria2.so.0:_ZN5aria26Logger3logENS0_5LEVELEPKciS3_RKNS_9ExceptionE
libaria2.so.0:_ZN5aria26Logger8openFileERKNSt7__cxx1112basic_stringIcSt11char_traitsIcESaIcEEE
libaria2.so.0:_ZN5aria26Logger8writeLogENS0_5LEVELEPKciS3_S3_
libaria2.so.0:_ZN5aria26Logger9closeFileEv
libaria2.so.0:_ZN5aria26LoggerC1Ev
libaria2.so.0:_ZN5aria26LoggerC2Ev
libaria2.so.0:_ZN5aria26LoggerD1Ev
libaria2.so.0:_ZN5aria26LoggerD2Ev
libaria2.so.0:_ZN5aria26Option11removeLocalEPKNS_4PrefE
libaria2.so.0:_ZN5aria26Option3putEPKNS_4PrefERKNSt7__cxx1112basic_stringIcSt11char_traitsIcESaIcEEE
libaria2.so.0:_ZN5aria26Option5clearEv
libaria2.so.0:_ZN5aria26Option5mergeERKS0_
libaria2.so.0:_ZN5aria26Option6removeEPKNS_4PrefE
libaria2.so.0:_ZN5aria26Option9setParentERKSt10shared_ptrIS0_E
libaria2.so.0:_ZN5aria26OptionC1ERKS0_
libaria2.so.0:_ZN5aria26OptionC1Ev
libaria2.so.0:_ZN5aria26OptionC2ERKS0_
libaria2.so.0:_ZN5aria26OptionC2Ev
libaria2.so.0:_ZN5aria26OptionD1Ev
libaria2.so.0:_ZN5aria26OptionD2Ev
libaria2.so.0:_ZN5aria26OptionaSERKS0_
libaria2.so.0:_ZN5aria26String1gEONSt7__cxx1112basic_stringIcSt11char_traitsIcESaIcEEE
libaria2.so.0:_ZN5aria26String1gEPKhm
libaria2.so.0:_ZN5aria26String1gERKNSt7__cxx1112basic_stringIcSt11char_traitsIcESaIcEEE
libaria2.so.0:_ZN5aria26StringC1EONSt7__cxx1112basic_stringIcSt11char_traitsIcESaIcEEE
libaria2.so.0:_ZN5aria26StringC1EPKc
libaria2.so.0:_ZN5aria26StringC1EPKcm
libaria2.so.0:_ZN5aria26StringC1EPKhm
libaria2.so.0:_ZN5aria26StringC1ERKNSt7__cxx1112basic_stringIcSt11char_traitsIcESaIcEEE
libaria2.so.0:_ZN5aria26StringC1Ev
libaria2.so.0:_ZN5aria26StringC2EONSt7__cxx1112basic_stringIcSt11char_traitsIcESaIcEEE
libaria2.so.0:_ZN5aria26StringC2EPKc
libaria2.so.0:_ZN5aria26StringC2EPKcm
libaria2.so.0:_ZN5aria26StringC2EPKhm
libaria2.so.0:_ZN5aria26StringC2ERKNSt7__cxx1112basic_stringIcSt11char_traitsIcESaIcEEE
libaria2.so.0:_ZN5aria26StringC2Ev
libaria2.so.0:_ZN5aria26addUriEPNS_7SessionEPmRKSt6vectorINSt7__cxx1112basic_stringIcSt11char_traitsIcESaIcEEESaIS9_EERKS3_ISt4pairIS9_S9_ESaISF_EEi
libaria2.so.0:_ZN5aria26base326encodeERKNSt7__cxx1112basic_stringIcSt11char_traitsIcESaIcEEE
libaria2.so.0:_ZN5aria26cookie11domainMatchERKNSt7__cxx1112basic_stringIcSt11char_traitsIcESaIcEEES8_
libaria2.so.0:_ZN5aria26cookie16canonicalizeHostERKNSt7__cxx1112basic_stringIcSt11char_traitsIcESaIcEEE
libaria2.so.0:_ZN5aria26cookie18reverseDomainLevelERKNSt7__cxx1112basic_stringIcSt11char_traitsIcESaIcEEE
libaria2.so.0:_ZN5aria26cookie5parseERKNSt7__cxx1112basic_stringIcSt11char_traitsIcESaIcEEES8_S8_l
libaria2.so.0:_ZN5aria26cookie8goodPathEN9__gnu_cxx17__normal_iteratorIPKcNSt7__cxx1112basic_stringIcSt11char_traitsIcESaIcEEEEESB_
libaria2.so.0:_ZN5aria26cookie9parseDateERlN9__gnu_cxx17__normal_iteratorIPKcNSt7__cxx1112basic_stringIcSt11char_traitsIcESaIcEEEEESC_
libaria2.so.0:_ZN5aria26cookie9pathMatchERKNSt7__cxx1112basic_stringIcSt11char_traitsIcESaIcEEES8_
libaria2.so.0:_ZN5aria26global11initConsoleEb
libaria2.so.0:_ZN5aria26global22redirectStdoutToStderrEv
libaria2.so.0:_ZN5aria26global4cerrEv
libaria2.so.0:_ZN5aria26global4coutEv
libaria2.so.0:_ZN5aria26global9wallclockEv
libaria2.so.0:_ZN5aria26isNullEm
libaria2.so.0:_ZN5aria26magnet5parseERKNSt7__cxx1112basic_stringIcSt11char_traitsIcESaIcEEE
libaria2.so.0:_ZN5aria26option11countOptionEv
libaria2.so.0:_ZN5aria26option18deletePrefResourceEv
libaria2.so.0:_ZN5aria26option3i2pEm
libaria2.so.0:_ZN5aria26option3k2pERKNSt7__cxx1112basic_stringIcSt11char_traitsIcESaIcEEE
libaria2.so.0:_ZN5aria27BtSetup5setupERSt6vectorISt10unique_ptrINS_7CommandESt14default_deleteIS3_EESaIS6_EEPNS_12RequestGroupEPNS_14DownloadEngineEPKNS_6OptionE
libaria2.so.0:_ZN5aria27BtSetupC1Ev
libaria2.so.0:_ZN5aria27BtSetupC2Ev
libaria2.so.0:_ZN5aria27Command13clearIOEventsEv
libaria2.so.0:_ZN5aria27Command13transitStatusEv
libaria2.so.0:_ZN5aria27Command16hupEventReceivedEv
libaria2.so.0:_ZN5aria27Command17readEventReceivedEv
libaria2.so.0:_ZN5aria27Command18errorEventReceivedEv
libaria2.so.0:_ZN5aria27Command18writeEventReceivedEv
libaria2.so.0:_ZN5aria27Command9setStatusENS0_6STATUSE
libaria2.so.0:_ZN5aria27CommandC1El
libaria2.so.0:_ZN5aria27CommandC2El
libaria2.so.0:_ZN5aria27ContextC1EbiPPcRKSt6vectorISt4pairINSt7__cxx1112basic_stringIcSt11char_traitsIcESaIcEEESA_ESaISB_EE
libaria2.so.0:_ZN5aria27ContextC2EbiPPcRKSt6vectorISt4pairINSt7__cxx1112basic_stringIcSt11char_traitsIcESaIcEEESA_ESaISB_EE
libaria2.so.0:_ZN5aria27ContextD1Ev
libaria2.so.0:_ZN5aria27ContextD2Ev
libaria2.so.0:_ZN5aria27DHTNode10generateIDEv
libaria2.so.0:_ZN5aria27DHTNode12setIPAddressERKNSt7__cxx1112basic_stringIcSt11char_traitsIcESaIcEEE
libaria2.so.0:_ZN5aria27DHTNode17updateLastContactEv
libaria2.so.0:_ZN5aria27DHTNode5setIDEPKh
libaria2.so.0:_ZN5aria27DHTNode7markBadEv
libaria2.so.0:_ZN5aria27DHTNode7timeoutEv
libaria2.so.0:_ZN5aria27DHTNode8markGoodEv
libaria2.so.0:_ZN5aria27DHTNodeC1EPKh
libaria2.so.0:_ZN5aria27DHTNodeC1Ev
libaria2.so.0:_ZN5aria27DHTNodeC2EPKh
libaria2.so.0:_ZN5aria27DHTNodeC2Ev
libaria2.so.0:_ZN5aria27DHTNodeD1Ev
libaria2.so.0:_ZN5aria27DHTNodeD2Ev
libaria2.so.0:_ZN5aria27GroupId11toAbbrevHexB5cxx11Em
libaria2.so.0:_ZN5aria27GroupId11toNumericIdERmPKc
libaria2.so.0:_ZN5aria27GroupId12expandUniqueERmPKc
libaria2.so.0:_ZN5aria27GroupId5clearEv
libaria2.so.0:_ZN5aria27GroupId5toHexB5cxx11Em
libaria2.so.0:_ZN5aria27GroupId6createEv
libaria2.so.0:_ZN5aria27GroupId6importEm
libaria2.so.0:_ZN5aria27GroupIdC1Em
libaria2.so.0:_ZN5aria27GroupIdC2Em
libaria2.so.0:_ZN5aria27GroupIdD1Ev
libaria2.so.0:_ZN5aria27GroupIdD2Ev
libaria2.so.0:_ZN5aria27Integer1gEl
libaria2.so.0:_ZN5aria27IntegerC1El
libaria2.so.0:_ZN5aria27IntegerC1Ev
libaria2.so.0:_ZN5aria27IntegerC2El
libaria2.so.0:_ZN5aria27IntegerC2Ev
libaria2.so.0:_ZN5aria27NetStat12downloadStopEv
libaria2.so.0:_ZN5aria27NetStat12updateUploadEm
libaria2.so.0:_ZN5aria27NetStat13downloadStartEv
libaria2.so.0:_ZN5aria27NetStat14toTransferStatEv
libaria2.so.0:_ZN5aria27NetStat14updateDownloadEm
libaria2.so.0:_ZN5aria27NetStat17updateUploadSpeedEm
libaria2.so.0:_ZN5aria27NetStat18updateUploadLengthEm
libaria2.so.0:_ZN5aria27NetStat20calculateUploadSpeedEv
libaria2.so.0:_ZN5aria27NetStat22calculateDownloadSpeedEv
libaria2.so.0:_ZN5aria27NetStat23calculateAvgUploadSpeedEv
libaria2.so.0:_ZN5aria27NetStat25calculateAvgDownloadSpeedEv
libaria2.so.0:_ZN5aria27NetStat26calculateNewestUploadSpeedEi
libaria2.so.0:_ZN5aria27NetStat28calculateNewestDownloadSpeedEi
libaria2.so.0:_ZN5aria27NetStat5resetEv
libaria2.so.0:_ZN5aria27NetStatC1Ev
libaria2.so.0:_ZN5aria27NetStatC2Ev
libaria2.so.0:_ZN5aria27NetStatD1Ev
libaria2.so.0:_ZN5aria27NetStatD2Ev
libaria2.so.0:_ZN5aria27Request10setRefererERKNSt7__cxx1112basic_stringIcSt11char_traitsIcESaIcEEE
libaria2.so.0:_ZN5aria27Request11redirectUriERKNSt7__cxx1112basic_stringIcSt11char_traitsIcESaIcEEE
libaria2.so.0:_ZN5aria27Request12initPeerStatEv
libaria2.so.0:_ZN5aria27Request18resetRedirectCountEv
libaria2.so.0:_ZN5aria27Request20setConnectedAddrInfoERKNSt7__cxx1112basic_stringIcSt11char_traitsIcESaIcEEES8_t
libaria2.so.0:_ZN5aria27Request22setMaxPipelinedRequestEi
libaria2.so.0:_ZN5aria27Request6setUriERKNSt7__cxx1112basic_stringIcSt11char_traitsIcESaIcEEE
libaria2.so.0:_ZN5aria27Request8parseUriERKNSt7__cxx1112basic_stringIcSt11char_traitsIcESaIcEEE
libaria2.so.0:_ZN5aria27Request8resetUriEv
libaria2.so.0:_ZN5aria27Request9setMethodERKNSt7__cxx1112basic_stringIcSt11char_traitsIcESaIcEEE
libaria2.so.0:_ZN5aria27RequestC1Ev
libaria2.so.0:_ZN5aria27RequestC2Ev
libaria2.so.0:_ZN5aria27RequestD1Ev
libaria2.so.0:_ZN5aria27RequestD2Ev
libaria2.so.0:_ZN5aria27SessionC1ERKSt6vectorISt4pairINSt7__cxx1112basic_stringIcSt11char_traitsIcESaIcEEES8_ESaIS9_EE
libaria2.so.0:_ZN5aria27SessionC2ERKSt6vectorISt4pairINSt7__cxx1112basic_stringIcSt11char_traitsIcESaIcEEES8_ESaIS9_EE
libaria2.so.0:_ZN5aria27SessionD1Ev
libaria2.so.0:_ZN5aria27SessionD2Ev
libaria2.so.0:_ZN5aria27XmlAttrC1Ev
libaria2.so.0:_ZN5aria27XmlAttrC2Ev
libaria2.so.0:_ZN5aria28BtObjectC1ERKSt10shared_ptrINS_15DownloadContextEERKS1_INS_12PieceStorageEERKS1_INS_11PeerStorageEERKS1_INS_10BtAnnounceEERKS1_INS_9BtRuntimeEERKS1_INS_18BtProgressInfoFileEE
libaria2.so.0:_ZN5aria28BtObjectC1Ev
libaria2.so.0:_ZN5aria28BtObjectC2ERKSt10shared_ptrINS_15DownloadContextEERKS1_INS_12PieceStorageEERKS1_INS_11PeerStorageEERKS1_INS_10BtAnnounceEERKS1_INS_9BtRuntimeEERKS1_INS_18BtProgressInfoFileEE
libaria2.so.0:_ZN5aria28BtObjectC2Ev
libaria2.so.0:_ZN5aria28Checksum11setHashTypeENSt7__cxx1112basic_stringIcSt11char_traitsIcESaIcEEE
libaria2.so.0:_ZN5aria28Checksum4swapERS0_
libaria2.so.0:_ZN5aria28Checksum9setDigestENSt7__cxx1112basic_stringIcSt11char_traitsIcESaIcEEE
libaria2.so.0:_ZN5aria28ChecksumC1ENSt7__cxx1112basic_stringIcSt11char_traitsIcESaIcEEES6_
libaria2.so.0:_ZN5aria28ChecksumC1Ev
libaria2.so.0:_ZN5aria28ChecksumC2ENSt7__cxx1112basic_stringIcSt11char_traitsIcESaIcEEES6_
libaria2.so.0:_ZN5aria28ChecksumC2Ev
libaria2.so.0:_ZN5aria28ChecksumD1Ev
libaria2.so.0:_ZN5aria28ChecksumD2Ev
libaria2.so.0:_ZN5aria28DHTSetup5setupEPNS_14DownloadEngineEi
libaria2.so.0:_ZN5aria28DHTSetupC1Ev
libaria2.so.0:_ZN5aria28DHTSetupC2Ev
libaria2.so.0:_ZN5aria28DHTSetupD1Ev
libaria2.so.0:_ZN5aria28DHTSetupD2Ev
libaria2.so.0:_ZN5aria28DNSCache10CacheEntry3addERKNSt7__cxx1112basic_stringIcSt11char_traitsIcESaIcEEE
libaria2.so.0:_ZN5aria28DNSCache10CacheEntry4findERKNSt7__cxx1112basic_stringIcSt11char_traitsIcESaIcEEE
libaria2.so.0:_ZN5aria28DNSCache10CacheEntry7markBadERKNSt7__cxx1112basic_stringIcSt11char_traitsIcESaIcEEE
libaria2.so.0:_ZN5aria28DNSCache10CacheEntryC1ERKNSt7__cxx1112basic_stringIcSt11char_traitsIcESaIcEEEt
libaria2.so.0:_ZN5aria28DNSCache10CacheEntryC1ERKS1_
libaria2.so.0:_ZN5aria28DNSCache10CacheEntryC2ERKNSt7__cxx1112basic_stringIcSt11char_traitsIcESaIcEEEt
libaria2.so.0:_ZN5aria28DNSCache10CacheEntryC2ERKS1_
libaria2.so.0:_ZN5aria28DNSCache10CacheEntryD1Ev
libaria2.so.0:_ZN5aria28DNSCache10CacheEntryD2Ev
libaria2.so.0:_ZN5aria28DNSCache10CacheEntryaSERKS1_
libaria2.so.0:_ZN5aria28DNSCache3putERKNSt7__cxx1112basic_stringIcSt11char_traitsIcESaIcEEES8_t
libaria2.so.0:_ZN5aria28DNSCache6removeERKNSt7__cxx1112basic_stringIcSt11char_traitsIcESaIcEEEt
libaria2.so.0:_ZN5aria28DNSCache7markBadERKNSt7__cxx1112basic_stringIcSt11char_traitsIcESaIcEEES8_t
libaria2.so.0:_ZN5aria28DNSCache9AddrEntryC1ERKNSt7__cxx1112basic_stringIcSt11char_traitsIcESaIcEEE
libaria2.so.0:_ZN5aria28DNSCache9AddrEntryC1ERKS1_
libaria2.so.0:_ZN5aria28DNSCache9AddrEntryC2ERKNSt7__cxx1112basic_stringIcSt11char_traitsIcESaIcEEE
libaria2.so.0:_ZN5aria28DNSCache9AddrEntryC2ERKS1_
libaria2.so.0:_ZN5aria28DNSCache9AddrEntryD1Ev
libaria2.so.0:_ZN5aria28DNSCache9AddrEntryD2Ev
libaria2.so.0:_ZN5aria28DNSCache9AddrEntryaSERKS1_
libaria2.so.0:_ZN5aria28DNSCacheC1ERKS0_
libaria2.so.0:_ZN5aria28DNSCacheC1Ev
libaria2.so.0:_ZN5aria28DNSCacheC2ERKS0_
libaria2.so.0:_ZN5aria28DNSCacheC2Ev
libaria2.so.0:_ZN5aria28DNSCacheD1Ev
libaria2.so.0:_ZN5aria28DNSCacheD2Ev
libaria2.so.0:_ZN5aria28DNSCacheaSERKS0_
libaria2.so.0:_ZN5aria28GZipFile15onSupportsColorEv
libaria2.so.0:_ZN5aria28GZipFile6onGetsEPci
libaria2.so.0:_ZN5aria28GZipFile6onReadEPvm
libaria2.so.0:_ZN5aria28GZipFile7onCloseEv
libaria2.so.0:_ZN5aria28GZipFile7onFlushEv
libaria2.so.0:_ZN5aria28GZipFile7onWriteEPKvm
libaria2.so.0:_ZN5aria28GZipFile9onVprintfEPKcP13__va_list_tag
libaria2.so.0:_ZN5aria28GZipFileC1EPKcS2_
libaria2.so.0:_ZN5aria28GZipFileC2EPKcS2_
libaria2.so.0:_ZN5aria28GZipFileD0Ev
libaria2.so.0:_ZN5aria28GZipFileD1Ev
libaria2.so.0:_ZN5aria28GZipFileD2Ev
libaria2.so.0:_ZN5aria28Notifier19notifyDownloadEventENS_13DownloadEventEPKNS_12RequestGroupE
libaria2.so.0:_ZN5aria28Notifier24addDownloadEventListenerEPNS_21DownloadEventListenerE
libaria2.so.0:_ZN5aria28NotifierC1Ev
libaria2.so.0:_ZN5aria28NotifierC2Ev
libaria2.so.0:_ZN5aria28NotifierD1Ev
libaria2.so.0:_ZN5aria28NotifierD2Ev
libaria2.so.0:_ZN5aria28PeerStat12downloadStopEv
libaria2.so.0:_ZN5aria28PeerStat12updateUploadEm
libaria2.so.0:_ZN5aria28PeerStat13downloadStartEv
libaria2.so.0:_ZN5aria28PeerStat14toTransferStatEv
libaria2.so.0:_ZN5aria28PeerStat14updateDownloadEm
libaria2.so.0:_ZN5aria28PeerStat20calculateUploadSpeedEv
libaria2.so.0:_ZN5aria28PeerStat22calculateDownloadSpeedEv
libaria2.so.0:_ZN5aria28PeerStat23calculateAvgUploadSpeedEv
libaria2.so.0:_ZN5aria28PeerStat24addSessionDownloadLengthEm
libaria2.so.0:_ZN5aria28PeerStat25calculateAvgDownloadSpeedEv
libaria2.so.0:_ZN5aria28PeerStat5resetEv
libaria2.so.0:_ZN5aria28PeerStatC1El
libaria2.so.0:_ZN5aria28PeerStatC1ElRKNSt7__cxx1112basic_stringIcSt11char_traitsIcESaIcEEES8_
libaria2.so.0:_ZN5aria28PeerStatC2El
libaria2.so.0:_ZN5aria28PeerStatC2ElRKNSt7__cxx1112basic_stringIcSt11char_traitsIcESaIcEEES8_
libaria2.so.0:_ZN5aria28PeerStatD1Ev
libaria2.so.0:_ZN5aria28PeerStatD2Ev
libaria2.so.0:_ZN5aria28Platform13isInitializedEv
libaria2.so.0:_ZN5aria28Platform5setUpEv
libaria2.so.0:_ZN5aria28Platform8tearDownEv
libaria2.so.0:_ZN5aria28PlatformC1Ev
libaria2.so.0:_ZN5aria28PlatformC2Ev
libaria2.so.0:_ZN5aria28PlatformD1Ev
libaria2.so.0:_ZN5aria28PlatformD2Ev
libaria2.so.0:_ZN5aria28bencode26decodeEPKhm
libaria2.so.0:_ZN5aria28bencode26decodeEPKhmRm
libaria2.so.0:_ZN5aria28bencode26decodeERKNSt7__cxx1112basic_stringIcSt11char_traitsIcESaIcEEE
libaria2.so.0:_ZN5aria28bencode26encodeB5cxx11EPKNS_9ValueBaseE
libaria2.so.0:_ZN5aria28bitfield7flipBitEPhmm
libaria2.so.0:_ZN5aria28callbackEPviiP7hostent
libaria2.so.0:_ZN5aria28findAttrERKSt6vectorINS_7XmlAttrESaIS1_EEPKcS7_
libaria2.so.0:_ZN5aria28gidToHexB5cxx11Em
libaria2.so.0:_ZN5aria28hexToGidERKNSt7__cxx1112basic_stringIcSt11char_traitsIcESaIcEEE
libaria2.so.0:_ZN5aria28inetNtopEiPKvPcj
libaria2.so.0:_ZN5aria28inetPtonEiPKcPv
libaria2.so.0:_ZN5aria28metalink13parseAndQueryEPNS_12BinaryStreamEPKNS_6OptionERKNSt7__cxx1112basic_stringIcSt11char_traitsIcESaIcEEE
libaria2.so.0:_ZN5aria28metalink13parseAndQueryERKNSt7__cxx1112basic_stringIcSt11char_traitsIcESaIcEEEPKNS_6OptionES8_
libaria2.so.0:_ZN5aria28metalink17parseBinaryStreamEPNS_12BinaryStreamERKNSt7__cxx1112basic_stringIcSt11char_traitsIcESaIcEEE
libaria2.so.0:_ZN5aria28metalink23groupEntryByMetaurlNameB5cxx11ERKSt6vectorISt10unique_ptrINS_13MetalinkEntryESt14default_deleteIS3_EESaIS6_EE
libaria2.so.0:_ZN5aria28metalink9parseFileERKNSt7__cxx1112basic_stringIcSt11char_traitsIcESaIcEEES8_
libaria2.so.0:_ZN5aria28shutdownEPNS_7SessionEb
libaria2.so.0:_ZN5aria28usedLibsB5cxx11Ev
libaria2.so.0:_ZN5aria29BasicCred8activateEv
libaria2.so.0:_ZN5aria29BasicCredC1ENSt7__cxx1112basic_stringIcSt11char_traitsIcESaIcEEES6_S6_tS6_b
libaria2.so.0:_ZN5aria29BasicCredC2ENSt7__cxx1112basic_stringIcSt11char_traitsIcESaIcEEES6_S6_tS6_b
libaria2.so.0:_ZN5aria29BtRuntime11setMaxPeersEi
libaria2.so.0:_ZN5aria29BtRuntimeC1Ev
libaria2.so.0:_ZN5aria29BtRuntimeC2Ev
libaria2.so.0:_ZN5aria29BtRuntimeD1Ev
libaria2.so.0:_ZN5aria29BtRuntimeD2Ev
libaria2.so.0:_ZN5aria29DHTBucket10moveToHeadERKSt10shared_ptrINS_7DHTNodeEE
libaria2.so.0:_ZN5aria29DHTBucket10moveToTailERKSt10shared_ptrINS_7DHTNodeEE
libaria2.so.0:_ZN5aria29DHTBucket12notifyUpdateEv
libaria2.so.0:_ZN5aria29DHTBucket5splitEv
libaria2.so.0:_ZN5aria29DHTBucket7addNodeERKSt10shared_ptrINS_7DHTNodeEE
libaria2.so.0:_ZN5aria29DHTBucket8dropNodeERKSt10shared_ptrINS_7DHTNodeEE
libaria2.so.0:_ZN5aria29DHTBucket9cacheNodeERKSt10shared_ptrINS_7DHTNodeEE
libaria2.so.0:_ZN5aria29DHTBucketC1ERKSt10shared_ptrINS_7DHTNodeEE
libaria2.so.0:_ZN5aria29DHTBucketC1EmPKhS2_RKSt10shared_ptrINS_7DHTNodeEE
libaria2.so.0:_ZN5aria29DHTBucketC2ERKSt10shared_ptrINS_7DHTNodeEE
libaria2.so.0:_ZN5aria29DHTBucketC2EmPKhS2_RKSt10shared_ptrINS_7DHTNodeEE
libaria2.so.0:_ZN5aria29DHTBucketD1Ev
libaria2.so.0:_ZN5aria29DHTBucketD2Ev
libaria2.so.0:_ZN5aria29DlAbortExC1EPKciRKNSt7__cxx1112basic_stringIcSt11char_traitsIcESaIcEEE
libaria2.so.0:_ZN5aria29DlAbortExC1EPKciRKNSt7__cxx1112basic_stringIcSt11char_traitsIcESaIcEEENS_10error_code5ValueE
libaria2.so.0:_ZN5aria29DlAbortExC1EPKciRKNSt7__cxx1112basic_stringIcSt11char_traitsIcESaIcEEERKNS_9ExceptionE
libaria2.so.0:_ZN5aria29DlAbortExC1EPKciiRKNSt7__cxx1112basic_stringIcSt11char_traitsIcESaIcEEE
libaria2.so.0:_ZN5aria29DlAbortExC1EPKciiRKNSt7__cxx1112basic_stringIcSt11char_traitsIcESaIcEEENS_10error_code5ValueE
libaria2.so.0:_ZN5aria29DlAbortExC2EPKciRKNSt7__cxx1112basic_stringIcSt11char_traitsIcESaIcEEE
libaria2.so.0:_ZN5aria29DlAbortExC2EPKciRKNSt7__cxx1112basic_stringIcSt11char_traitsIcESaIcEEENS_10error_code5ValueE
libaria2.so.0:_ZN5aria29DlAbortExC2EPKciRKNSt7__cxx1112basic_stringIcSt11char_traitsIcESaIcEEERKNS_9ExceptionE
libaria2.so.0:_ZN5aria29DlAbortExC2EPKciiRKNSt7__cxx1112basic_stringIcSt11char_traitsIcESaIcEEE
libaria2.so.0:_ZN5aria29DlAbortExC2EPKciiRKNSt7__cxx1112basic_stringIcSt11char_traitsIcESaIcEEENS_10error_code5ValueE
libaria2.so.0:_ZN5aria29DlRetryExC1EPKciRKNSt7__cxx1112basic_stringIcSt11char_traitsIcESaIcEEE
libaria2.so.0:_ZN5aria29DlRetryExC1EPKciRKNSt7__cxx1112basic_stringIcSt11char_traitsIcESaIcEEENS_10error_code5ValueE
libaria2.so.0:_ZN5aria29DlRetryExC1EPKciRKNSt7__cxx1112basic_stringIcSt11char_traitsIcESaIcEEERKNS_9ExceptionE
libaria2.so.0:_ZN5aria29DlRetryExC2EPKciRKNSt7__cxx1112basic_stringIcSt11char_traitsIcESaIcEEE
libaria2.so.0:_ZN5aria29DlRetryExC2EPKciRKNSt7__cxx1112basic_stringIcSt11char_traitsIcESaIcEEENS_10error_code5ValueE
libaria2.so.0:_ZN5aria29DlRetryExC2EPKciRKNSt7__cxx1112basic_stringIcSt11char_traitsIcESaIcEEERKNS_9ExceptionE
libaria2.so.0:_ZN5aria29ExceptionC1EPKciRKNSt7__cxx1112basic_stringIcSt11char_traitsIcESaIcEEE
libaria2.so.0:_ZN5aria29ExceptionC1EPKciRKNSt7__cxx1112basic_stringIcSt11char_traitsIcESaIcEEENS_10error_code5ValueE
libaria2.so.0:_ZN5aria29ExceptionC1EPKciRKNSt7__cxx1112basic_stringIcSt11char_traitsIcESaIcEEENS_10error_code5ValueERKS0_
libaria2.so.0:_ZN5aria29ExceptionC1EPKciRKNSt7__cxx1112basic_stringIcSt11char_traitsIcESaIcEEERKS0_
libaria2.so.0:_ZN5aria29ExceptionC1EPKciiRKNSt7__cxx1112basic_stringIcSt11char_traitsIcESaIcEEE
libaria2.so.0:_ZN5aria29ExceptionC1EPKciiRKNSt7__cxx1112basic_stringIcSt11char_traitsIcESaIcEEENS_10error_code5ValueE
libaria2.so.0:_ZN5aria29ExceptionC2EPKciRKNSt7__cxx1112basic_stringIcSt11char_traitsIcESaIcEEE
libaria2.so.0:_ZN5aria29ExceptionC2EPKciRKNSt7__cxx1112basic_stringIcSt11char_traitsIcESaIcEEENS_10error_code5ValueE
libaria2.so.0:_ZN5aria29ExceptionC2EPKciRKNSt7__cxx1112basic_stringIcSt11char_traitsIcESaIcEEENS_10error_code5ValueERKS0_
libaria2.so.0:_ZN5aria29ExceptionC2EPKciRKNSt7__cxx1112basic_stringIcSt11char_traitsIcESaIcEEERKS0_
libaria2.so.0:_ZN5aria29ExceptionC2EPKciiRKNSt7__cxx1112basic_stringIcSt11char_traitsIcESaIcEEE
libaria2.so.0:_ZN5aria29ExceptionC2EPKciiRKNSt7__cxx1112basic_stringIcSt11char_traitsIcESaIcEEENS_10error_code5ValueE
libaria2.so.0:_ZN5aria29ExceptionD0Ev
libaria2.so.0:_ZN5aria29ExceptionD1Ev
libaria2.so.0:_ZN5aria29ExceptionD2Ev
libaria2.so.0:_ZN5aria29FileEntry10getRequestEPNS_11URISelectorEbRKSt6vectorISt4pairImNSt7__cxx1112basic_stringIcSt11char_traitsIcESaIcEEEESaISB_EERKSA_SH_
libaria2.so.0:_ZN5aria29FileEntry11poolRequestERKSt10shared_ptrINS_7RequestEE
libaria2.so.0:_ZN5aria29FileEntry12addURIResultENSt7__cxx1112basic_stringIcSt11char_traitsIcESaIcEEENS_10error_code5ValueE
libaria2.so.0:_ZN5aria29FileEntry13removeRequestERKSt10shared_ptrINS_7RequestEE
libaria2.so.0:_ZN5aria29FileEntry13setSuffixPathENSt7__cxx1112basic_stringIcSt11char_traitsIcESaIcEEE
libaria2.so.0:_ZN5aria29FileEntry14putBackRequestEv
libaria2.so.0:_ZN5aria29FileEntry14setContentTypeENSt7__cxx1112basic_stringIcSt11char_traitsIcESaIcEEE
libaria2.so.0:_ZN5aria29FileEntry15setOriginalNameENSt7__cxx1112basic_stringIcSt11char_traitsIcESaIcEEE
libaria2.so.0:_ZN5aria29FileEntry16extractURIResultERSt5dequeINS_9URIResultESaIS2_EENS_10error_code5ValueE
libaria2.so.0:_ZN5aria29FileEntry17findFasterRequestERKSt10shared_ptrINS_7RequestEE
libaria2.so.0:_ZN5aria29FileEntry17findFasterRequestERKSt10shared_ptrINS_7RequestEERKSt6vectorISt4pairImNSt7__cxx1112basic_stringIcSt11char_traitsIcESaIcEEEESaISE_EERKS1_INS_13ServerStatManEE
libaria2.so.0:_ZN5aria29FileEntry18removeIdenticalURIERKNSt7__cxx1112basic_stringIcSt11char_traitsIcESaIcEEE
libaria2.so.0:_ZN5aria29FileEntry22releaseRuntimeResourceEv
libaria2.so.0:_ZN5aria29FileEntry24removeURIWhoseHostnameIsERKNSt7__cxx1112basic_stringIcSt11char_traitsIcESaIcEEE
libaria2.so.0:_ZN5aria29FileEntry27getRequestWithInFlightHostsEPNS_11URISelectorEbRKSt6vectorISt4pairImNSt7__cxx1112basic_stringIcSt11char_traitsIcESaIcEEEESaISB_EERKSA_SH_RKS3_ISA_SaISA_EE
libaria2.so.0:_ZN5aria29FileEntry6addUriERKNSt7__cxx1112basic_stringIcSt11char_traitsIcESaIcEEE
libaria2.so.0:_ZN5aria29FileEntry7setPathENSt7__cxx1112basic_stringIcSt11char_traitsIcESaIcEEE
libaria2.so.0:_ZN5aria29FileEntry7setUrisERKSt6vectorINSt7__cxx1112basic_stringIcSt11char_traitsIcESaIcEEESaIS7_EE
libaria2.so.0:_ZN5aria29FileEntry8reuseUriERKSt6vectorINSt7__cxx1112basic_stringIcSt11char_traitsIcESaIcEEESaIS7_EE
libaria2.so.0:_ZN5aria29FileEntry9insertUriERKNSt7__cxx1112basic_stringIcSt11char_traitsIcESaIcEEEm
libaria2.so.0:_ZN5aria29FileEntry9removeUriERKNSt7__cxx1112basic_stringIcSt11char_traitsIcESaIcEEE
libaria2.so.0:_ZN5aria29FileEntry9storePoolERKSt10shared_ptrINS_7RequestEE
libaria2.so.0:_ZN5aria29FileEntryC1ENSt7__cxx1112basic_stringIcSt11char_traitsIcESaIcEEEllRKSt6vectorIS6_SaIS6_EE
libaria2.so.0:_ZN5aria29FileEntryC1Ev
libaria2.so.0:_ZN5aria29FileEntryC2ENSt7__cxx1112basic_stringIcSt11char_traitsIcESaIcEEEllRKSt6vectorIS6_SaIS6_EE
libaria2.so.0:_ZN5aria29FileEntryC2Ev
libaria2.so.0:_ZN5aria29FileEntryD1Ev
libaria2.so.0:_ZN5aria29FileEntryD2Ev
libaria2.so.0:_ZN5aria29Signature7setBodyENSt7__cxx1112basic_stringIcSt11char_traitsIcESaIcEEE
libaria2.so.0:_ZN5aria29Signature7setFileENSt7__cxx1112basic_stringIcSt11char_traitsIcESaIcEEE
libaria2.so.0:_ZN5aria29Signature7setTypeENSt7__cxx1112basic_stringIcSt11char_traitsIcESaIcEEE
libaria2.so.0:_ZN5aria29SignatureC1Ev
libaria2.so.0:_ZN5aria29SignatureC2Ev
libaria2.so.0:_ZN5aria29SignatureD1Ev
libaria2.so.0:_ZN5aria29SignatureD2Ev
libaria2.so.0:_ZN5aria29SpeedCalc14calculateSpeedEv
libaria2.so.0:_ZN5aria29SpeedCalc19removeStaleTimeSlotERKNS_5TimerE
libaria2.so.0:_ZN5aria29SpeedCalc20calculateNewestSpeedEi
libaria2.so.0:_ZN5aria29SpeedCalc5resetEv
libaria2.so.0:_ZN5aria29SpeedCalc6updateEm
libaria2.so.0:_ZN5aria29SpeedCalcC1Ev
libaria2.so.0:_ZN5aria29SpeedCalcC2Ev
libaria2.so.0:_ZN5aria29URIResultC1ERKNSt7__cxx1112basic_stringIcSt11char_traitsIcESaIcEEENS_10error_code5ValueE
libaria2.so.0:_ZN5aria29URIResultC2ERKNSt7__cxx1112basic_stringIcSt11char_traitsIcESaIcEEENS_10error_code5ValueE
libaria2.so.0:_ZN5aria29URIResultD1Ev
libaria2.so.0:_ZN5aria29URIResultD2Ev
libaria2.so.0:_ZN5aria29idHelpTagEPKc
libaria2.so.0:_ZN5aria29showUsageERKNSt7__cxx1112basic_stringIcSt11char_traitsIcESaIcEEERKSt10shared_ptrINS_12OptionParserEERKS8_INS_10OutputFileEE
libaria2.so.0:_ZN5aria2lsERSoRKNS_13OptionHandlerE
libaria2.so.0:_ZN5aria2lsERSoRKSt10shared_ptrINS_10AuthConfigEE
libaria2.so.0:_ZN5aria2miERKNS_12TransferStatES2_
libaria2.so.0:_ZN5aria2plERKNS_12TransferStatES2_
libaria2.so.0:_ZNK5aria210AuthConfig11getAuthTextB5cxx11Ev
libaria2.so.0:_ZNK5aria210BtRegistry18getDownloadContextERKNSt7__cxx1112basic_stringIcSt11char_traitsIcESaIcEEE
libaria2.so.0:_ZNK5aria210BtRegistry18getDownloadContextEm
libaria2.so.0:_ZNK5aria210BtRegistry3getEm
libaria2.so.0:_ZNK5aria210DomainNode11countCookieEv
libaria2.so.0:_ZNK5aria210DomainNode11writeCookieERNS_12BufferedFileE
libaria2.so.0:_ZNK5aria210DomainNode16getLruAccessTimeEv
libaria2.so.0:_ZNK5aria210DomainNode17getLastAccessTimeEv
libaria2.so.0:_ZNK5aria210DomainNode5emptyEv
libaria2.so.0:_ZNK5aria210DomainNode7hasNextEv
libaria2.so.0:_ZNK5aria210DomainNode8containsERKNS_6CookieE
libaria2.so.0:_ZNK5aria210DomainNode8findNextERKNSt7__cxx1112basic_stringIcSt11char_traitsIcESaIcEEE
libaria2.so.0:_ZNK5aria210DomainNode8getInLruEv
libaria2.so.0:_ZNK5aria210DomainNode8getLabelB5cxx11Ev
libaria2.so.0:_ZNK5aria210DomainNode9getParentEv
libaria2.so.0:_ZNK5aria210HttpHeader10equalRangeB5cxx11Ei
libaria2.so.0:_ZNK5aria210HttpHeader10getVersionB5cxx11Ev
libaria2.so.0:_ZNK5aria210HttpHeader11isKeepAliveEv
libaria2.so.0:_ZNK5aria210HttpHeader13getStatusCodeEv
libaria2.so.0:_ZNK5aria210HttpHeader14getRequestPathB5cxx11Ev
libaria2.so.0:_ZNK5aria210HttpHeader15getReasonPhraseB5cxx11Ev
libaria2.so.0:_ZNK5aria210HttpHeader4findB5cxx11Ei
libaria2.so.0:_ZNK5aria210HttpHeader7definedEi
libaria2.so.0:_ZNK5aria210HttpHeader7findAllB5cxx11Ei
libaria2.so.0:_ZNK5aria210HttpHeader8getRangeEv
libaria2.so.0:_ZNK5aria210HttpHeader9getMethodB5cxx11Ev
libaria2.so.0:_ZNK5aria210HttpServer10createPathB5cxx11Ev
libaria2.so.0:_ZNK5aria210HttpServer11createQueryB5cxx11Ev
libaria2.so.0:_ZNK5aria210HttpServer14getRequestPathB5cxx11Ev
libaria2.so.0:_ZNK5aria210HttpServer17sendBufferIsEmptyEv
libaria2.so.0:_ZNK5aria210HttpServer28supportsPersistentConnectionEv
libaria2.so.0:_ZNK5aria210HttpServer7getBodyEv
libaria2.so.0:_ZNK5aria210HttpServer8wantReadEv
libaria2.so.0:_ZNK5aria210HttpServer9getMethodB5cxx11Ev
libaria2.so.0:_ZNK5aria210HttpServer9wantWriteEv
libaria2.so.0:_ZNK5aria210SHA1IOFile5isEOFEv
libaria2.so.0:_ZNK5aria210SHA1IOFile6isOpenEv
libaria2.so.0:_ZNK5aria210SHA1IOFile7isErrorEv
libaria2.so.0:_ZNK5aria210SegmentMan10hasSegmentEm
libaria2.so.0:_ZNK5aria210SegmentMan11getPeerStatEl
libaria2.so.0:_ZNK5aria210SegmentMan14getTotalLengthEv
libaria2.so.0:_ZNK5aria210SegmentMan16downloadFinishedEv
libaria2.so.0:_ZNK5aria210SegmentMan17getDownloadLengthEv
libaria2.so.0:_ZNK5aria210SegmentMan18allSegmentsIgnoredEv
libaria2.so.0:_ZNK5aria210SegmentMan18countFreePieceFromEm
libaria2.so.0:_ZNK5aria210ServerStat8toStringB5cxx11Ev
libaria2.so.0:_ZNK5aria210ServerStateqERKS0_
libaria2.so.0:_ZNK5aria210ServerStatltERKS0_
libaria2.so.0:_ZNK5aria210SocketCore11getAddrInfoER14sockaddr_unionRj
libaria2.so.0:_ZNK5aria210SocketCore11getAddrInfoEv
libaria2.so.0:_ZNK5aria210SocketCore11getPeerInfoEv
libaria2.so.0:_ZNK5aria210SocketCore14getSocketErrorB5cxx11Ev
libaria2.so.0:_ZNK5aria210SocketCore16acceptConnectionEv
libaria2.so.0:_ZNK5aria210SocketCore16getAddressFamilyEv
libaria2.so.0:_ZNK5aria210SocketCore21getRecvBufferedLengthEv
libaria2.so.0:_ZNK5aria210SocketCore8wantReadEv
libaria2.so.0:_ZNK5aria210SocketCore9wantWriteEv
libaria2.so.0:_ZNK5aria210bittorrent13BencodeParser8stateTopEv
libaria2.so.0:_ZNK5aria211BitfieldMan11isAllBitSetEv
libaria2.so.0:_ZNK5aria211BitfieldMan11isUseBitSetEm
libaria2.so.0:_ZNK5aria211BitfieldMan13isBitRangeSetEmm
libaria2.so.0:_ZNK5aria211BitfieldMan14getBlockLengthEm
libaria2.so.0:_ZNK5aria211BitfieldMan14isFilterBitSetEm
libaria2.so.0:_ZNK5aria211BitfieldMan15hasMissingPieceEPKhm
libaria2.so.0:_ZNK5aria211BitfieldMan17countMissingBlockEv
libaria2.so.0:_ZNK5aria211BitfieldMan17isAllFilterBitSetEv
libaria2.so.0:_ZNK5aria211BitfieldMan18getCompletedLengthEb
libaria2.so.0:_ZNK5aria211BitfieldMan18getLastBlockLengthEv
libaria2.so.0:_ZNK5aria211BitfieldMan19isBitSetOffsetRangeEll
libaria2.so.0:_ZNK5aria211BitfieldMan19isFilteredAllBitSetEv
libaria2.so.0:_ZNK5aria211BitfieldMan20countMissingBlockNowEv
libaria2.so.0:_ZNK5aria211BitfieldMan20getAllMissingIndexesEPhm
libaria2.so.0:_ZNK5aria211BitfieldMan20getAllMissingIndexesEPhmPKhm
libaria2.so.0:_ZNK5aria211BitfieldMan20getFirstMissingIndexERm
libaria2.so.0:_ZNK5aria211BitfieldMan21countFilteredBlockNowEv
libaria2.so.0:_ZNK5aria211BitfieldMan21getCompletedLengthNowEv
libaria2.so.0:_ZNK5aria211BitfieldMan22getMissingUnusedLengthEm
libaria2.so.0:_ZNK5aria211BitfieldMan24getOffsetCompletedLengthEll
libaria2.so.0:_ZNK5aria211BitfieldMan25getFilteredTotalLengthNowEv
libaria2.so.0:_ZNK5aria211BitfieldMan25getGeomMissingUnusedIndexERmiPKhmdm
libaria2.so.0:_ZNK5aria211BitfieldMan26getAllMissingUnusedIndexesEPhmPKhm
libaria2.so.0:_ZNK5aria211BitfieldMan26getFirstMissingUnusedIndexERm
libaria2.so.0:_ZNK5aria211BitfieldMan27getFirstNMissingUnusedIndexERSt6vectorImSaImEEm
libaria2.so.0:_ZNK5aria211BitfieldMan27getSparseMissingUnusedIndexERmiPKhm
libaria2.so.0:_ZNK5aria211BitfieldMan28getInorderMissingUnusedIndexERmiPKhm
libaria2.so.0:_ZNK5aria211BitfieldMan28getInorderMissingUnusedIndexERmmmiPKhm
libaria2.so.0:_ZNK5aria211BitfieldMan29getFilteredCompletedLengthNowEv
libaria2.so.0:_ZNK5aria211BitfieldMan5Range11getMidIndexEv
libaria2.so.0:_ZNK5aria211BitfieldMan5Range7getSizeEv
libaria2.so.0:_ZNK5aria211BitfieldMan5RangeeqERKS1_
libaria2.so.0:_ZNK5aria211BitfieldMan5RangeltERKS1_
libaria2.so.0:_ZNK5aria211BitfieldMan8isBitSetEm
libaria2.so.0:_ZNK5aria211DHTPingTask16isPingSuccessfulEv
libaria2.so.0:_ZNK5aria211GrowSegment8getPieceEv
libaria2.so.0:_ZNK5aria211HttpRequest10getEndByteEv
libaria2.so.0:_ZNK5aria211HttpRequest10getURIHostB5cxx11Ev
libaria2.so.0:_ZNK5aria211HttpRequest11getProtocolB5cxx11Ev
libaria2.so.0:_ZNK5aria211HttpRequest12getStartByteEv
libaria2.so.0:_ZNK5aria211HttpRequest13getAuthConfigEv
libaria2.so.0:_ZNK5aria211HttpRequest13getCurrentURIB5cxx11Ev
libaria2.so.0:_ZNK5aria211HttpRequest15getEntityLengthEv
libaria2.so.0:_ZNK5aria211HttpRequest16getCookieStorageEv
libaria2.so.0:_ZNK5aria211HttpRequest16isRangeSatisfiedERKNS_5RangeE
libaria2.so.0:_ZNK5aria211HttpRequest17isProxyRequestSetEv
libaria2.so.0:_ZNK5aria211HttpRequest18authenticationUsedEv
libaria2.so.0:_ZNK5aria211HttpRequest18conditionalRequestEv
libaria2.so.0:_ZNK5aria211HttpRequest18createProxyRequestB5cxx11Ev
libaria2.so.0:_ZNK5aria211HttpRequest18getProxyAuthStringB5cxx11Ev
libaria2.so.0:_ZNK5aria211HttpRequest6getDirB5cxx11Ev
libaria2.so.0:_ZNK5aria211HttpRequest7getFileB5cxx11Ev
libaria2.so.0:_ZNK5aria211HttpRequest7getHostB5cxx11Ev
libaria2.so.0:_ZNK5aria211HttpRequest7getPortEv
libaria2.so.0:_ZNK5aria211HttpRequest8getQueryB5cxx11Ev
libaria2.so.0:_ZNK5aria211HttpRequest8getRangeEv
libaria2.so.0:_ZNK5aria211HttpRequest9getMethodB5cxx11Ev
libaria2.so.0:_ZNK5aria211RequestSlot9isTimeoutERKNSt6chrono8durationIlSt5ratioILl1ELl1EEEE
libaria2.so.0:_ZNK5aria212AnnounceList11getAnnounceB5cxx11Ev
libaria2.so.0:_ZNK5aria212AnnounceList14allTiersFailedEv
libaria2.so.0:_ZNK5aria212AnnounceList14getEventStringEv
libaria2.so.0:_ZNK5aria212AnnounceList23countStoppedAllowedTierEv
libaria2.so.0:_ZNK5aria212AnnounceList25countCompletedAllowedTierEv
libaria2.so.0:_ZNK5aria212AnnounceList30currentTierAcceptsStoppedEventEv
libaria2.so.0:_ZNK5aria212AnnounceList32currentTierAcceptsCompletedEventEv
libaria2.so.0:_ZNK5aria212AnnounceList8getEventEv
libaria2.so.0:_ZNK5aria212AnnounceList9countTierEv
libaria2.so.0:_ZNK5aria212BufferedFile5isEOFEv
libaria2.so.0:_ZNK5aria212BufferedFile6isOpenEv
libaria2.so.0:_ZNK5aria212BufferedFile7isErrorEv
libaria2.so.0:_ZNK5aria212HttpResponse10isRedirectEv
libaria2.so.0:_ZNK5aria212HttpResponse13getHttpHeaderEv
libaria2.so.0:_ZNK5aria212HttpResponse13getStatusCodeEv
libaria2.so.0:_ZNK5aria212HttpResponse14getContentTypeB5cxx11Ev
libaria2.so.0:_ZNK5aria212HttpResponse14getRedirectURIB5cxx11Ev
libaria2.so.0:_ZNK5aria212HttpResponse15getEntityLengthEv
libaria2.so.0:_ZNK5aria212HttpResponse16getContentLengthEv
libaria2.so.0:_ZNK5aria212HttpResponse16validateResponseEv
libaria2.so.0:_ZNK5aria212HttpResponse17determineFilenameB5cxx11Eb
libaria2.so.0:_ZNK5aria212HttpResponse18getContentEncodingB5cxx11Ev
libaria2.so.0:_ZNK5aria212HttpResponse19getLastModifiedTimeEv
libaria2.so.0:_ZNK5aria212HttpResponse19getTransferEncodingB5cxx11Ev
libaria2.so.0:_ZNK5aria212HttpResponse22getMetalinKHttpEntriesERSt6vectorINS_17MetalinkHttpEntryESaIS2_EERKSt10shared_ptrINS_6OptionEE
libaria2.so.0:_ZNK5aria212HttpResponse26isContentEncodingSpecifiedEv
libaria2.so.0:_ZNK5aria212HttpResponse27isTransferEncodingSpecifiedEv
libaria2.so.0:_ZNK5aria212HttpResponse28supportsPersistentConnectionEv
libaria2.so.0:_ZNK5aria212HttpResponse30getContentEncodingStreamFilterEv
libaria2.so.0:_ZNK5aria212HttpResponse31getTransferEncodingStreamFilterEv
libaria2.so.0:_ZNK5aria212HttpResponse9getDigestERSt6vectorINS_8ChecksumESaIS2_EE
libaria2.so.0:_ZNK5aria212MSEHandshake12getWantWriteEv
libaria2.so.0:_ZNK5aria212MSEHandshake14createReq1HashEPh
libaria2.so.0:_ZNK5aria212MSEHandshake15createReq23HashEPhPKh
libaria2.so.0:_ZNK5aria212MetadataInfo6getGIDEv
libaria2.so.0:_ZNK5aria212OptionParser15findByShortNameEc
libaria2.so.0:_ZNK5aria212OptionParser18parseDefaultValuesERNS_6OptionE
libaria2.so.0:_ZNK5aria212OptionParser19findByNameSubstringERKNSt7__cxx1112basic_stringIcSt11char_traitsIcESaIcEEE
libaria2.so.0:_ZNK5aria212OptionParser4findEPKNS_4PrefE
libaria2.so.0:_ZNK5aria212OptionParser5parseERNS_6OptionERKSt6vectorISt4pairINSt7__cxx1112basic_stringIcSt11char_traitsIcESaIcEEESA_ESaISB_EE
libaria2.so.0:_ZNK5aria212OptionParser5parseERNS_6OptionERSi
libaria2.so.0:_ZNK5aria212OptionParser7findAllEv
libaria2.so.0:_ZNK5aria212OptionParser8findByIdEm
libaria2.so.0:_ZNK5aria212OptionParser8parseArgERSoRSt6vectorINSt7__cxx1112basic_stringIcSt11char_traitsIcESaIcEEESaIS8_EEiPPc
libaria2.so.0:_ZNK5aria212OptionParser9findByTagEj
libaria2.so.0:_ZNK5aria212RequestGroup11p2pInvolvedEv
libaria2.so.0:_ZNK5aria212RequestGroup13calculateStatEv
libaria2.so.0:_ZNK5aria212RequestGroup14downloadResultB5cxx11Ev
libaria2.so.0:_ZNK5aria212RequestGroup14getTotalLengthEv
libaria2.so.0:_ZNK5aria212RequestGroup15saveControlFileEv
libaria2.so.0:_ZNK5aria212RequestGroup16downloadFinishedEv
libaria2.so.0:_ZNK5aria212RequestGroup16getFirstFilePathB5cxx11Ev
libaria2.so.0:_ZNK5aria212RequestGroup16getNumConnectionEv
libaria2.so.0:_ZNK5aria212RequestGroup16validateFilenameERKNSt7__cxx1112basic_stringIcSt11char_traitsIcESaIcEEE
libaria2.so.0:_ZNK5aria212RequestGroup16validateFilenameERKNSt7__cxx1112basic_stringIcSt11char_traitsIcESaIcEEES8_
libaria2.so.0:_ZNK5aria212RequestGroup17removeControlFileEv
libaria2.so.0:_ZNK5aria212RequestGroup18getCompletedLengthEv
libaria2.so.0:_ZNK5aria212RequestGroup19allDownloadFinishedEv
libaria2.so.0:_ZNK5aria212RequestGroup19needsFileAllocationEv
libaria2.so.0:_ZNK5aria212RequestGroup19validateTotalLengthEl
libaria2.so.0:_ZNK5aria212RequestGroup19validateTotalLengthEll
libaria2.so.0:_ZNK5aria212RequestGroup20createDownloadResultEv
libaria2.so.0:_ZNK5aria212RequestGroup8isSeederEv
libaria2.so.0:_ZNK5aria212SocketBuffer14StringBufEntry5finalEm
libaria2.so.0:_ZNK5aria212SocketBuffer14StringBufEntry7getDataEv
libaria2.so.0:_ZNK5aria212SocketBuffer14StringBufEntry9getLengthEv
libaria2.so.0:_ZNK5aria212SocketBuffer17ByteArrayBufEntry5finalEm
libaria2.so.0:_ZNK5aria212SocketBuffer17ByteArrayBufEntry7getDataEv
libaria2.so.0:_ZNK5aria212SocketBuffer17ByteArrayBufEntry9getLengthEv
libaria2.so.0:_ZNK5aria212SocketBuffer17sendBufferIsEmptyEv
libaria2.so.0:_ZNK5aria213Authenticator5matchERKNSt7__cxx1112basic_stringIcSt11char_traitsIcESaIcEEE
libaria2.so.0:_ZNK5aria213BtPortMessage8toStringB5cxx11Ev
libaria2.so.0:_ZNK5aria213ChunkChecksum12getPieceHashB5cxx11Em
libaria2.so.0:_ZNK5aria213ChunkChecksum13validateChunkERKNSt7__cxx1112basic_stringIcSt11char_traitsIcESaIcEEEm
libaria2.so.0:_ZNK5aria213ChunkChecksum14countPieceHashEv
libaria2.so.0:_ZNK5aria213ChunkChecksum22getEstimatedDataLengthEv
libaria2.so.0:_ZNK5aria213CookieStorage11getRootNodeEv
libaria2.so.0:_ZNK5aria213CookieStorage17getLruTrackerSizeEv
libaria2.so.0:_ZNK5aria213CookieStorage4sizeEv
libaria2.so.0:_ZNK5aria213CookieStorage8containsERKNS_6CookieE
libaria2.so.0:_ZNK5aria213DHKeyExchange12getPublicKeyEPhm
libaria2.so.0:_ZNK5aria213DHKeyExchange13computeSecretEPhmPKhm
libaria2.so.0:_ZNK5aria213DHKeyExchange13generateNonceEPhm
libaria2.so.0:_ZNK5aria213FtpConnection17findEndOfResponseEiRKNSt7__cxx1112basic_stringIcSt11char_traitsIcESaIcEEE
libaria2.so.0:_ZNK5aria213FtpConnection7getUserB5cxx11Ev
libaria2.so.0:_ZNK5aria213FtpConnection9getStatusERKNSt7__cxx1112basic_stringIcSt11char_traitsIcESaIcEEE
libaria2.so.0:_ZNK5aria213MessageDigest15getDigestLengthEv
libaria2.so.0:_ZNK5aria213MetalinkEntry10containsOSERKNSt7__cxx1112basic_stringIcSt11char_traitsIcESaIcEEE
libaria2.so.0:_ZNK5aria213MetalinkEntry16containsLanguageERKNSt7__cxx1112basic_stringIcSt11char_traitsIcESaIcEEE
libaria2.so.0:_ZNK5aria213MetalinkEntry7getPathB5cxx11Ev
libaria2.so.0:_ZNK5aria213MetalinkEntry9getLengthEv
libaria2.so.0:_ZNK5aria213PeerAddrEntryeqERKS0_
libaria2.so.0:_ZNK5aria213PiecedSegment11getPositionEv
libaria2.so.0:_ZNK5aria213PiecedSegment16isHashCalculatedEv
libaria2.so.0:_ZNK5aria213PiecedSegment18getPositionToWriteEv
libaria2.so.0:_ZNK5aria213PiecedSegment8completeEv
libaria2.so.0:_ZNK5aria213PiecedSegment8getIndexEv
libaria2.so.0:_ZNK5aria213PiecedSegment8getPieceEv
libaria2.so.0:_ZNK5aria213PiecedSegment9getLengthEv
libaria2.so.0:_ZNK5aria213ServerStatMan4findERKNSt7__cxx1112basic_stringIcSt11char_traitsIcESaIcEEES8_
libaria2.so.0:_ZNK5aria213ServerStatMan4saveERKNSt7__cxx1112basic_stringIcSt11char_traitsIcESaIcEEE
libaria2.so.0:_ZNK5aria213SizeFormatterclB5cxx11El
libaria2.so.0:_ZNK5aria213UDPAnnRequest7stoppedEv
libaria2.so.0:_ZNK5aria213UDPAnnRequest7successEv
libaria2.so.0:_ZNK5aria213ZeroBtMessage8toStringB5cxx11Ev
libaria2.so.0:_ZNK5aria214BtPieceMessage13pushPieceDataEli
libaria2.so.0:_ZNK5aria214BtPieceMessage19createMessageHeaderEPh
libaria2.so.0:_ZNK5aria214BtPieceMessage8toStringB5cxx11Ev
libaria2.so.0:_ZNK5aria214ConnectCommand15getProxyRequestEv
libaria2.so.0:_ZNK5aria214ConnectCommand7noCheckEv
libaria2.so.0:_ZNK5aria214DHTPingMessage14getMessageTypeB5cxx11Ev
libaria2.so.0:_ZNK5aria214DownloadEngine15SocketPoolEntry9isTimeoutEv
libaria2.so.0:_ZNK5aria214DownloadEngine16getCookieStorageEv
libaria2.so.0:_ZNK5aria214DownloadEngine19findCachedIPAddressERKNSt7__cxx1112basic_stringIcSt11char_traitsIcESaIcEEEt
libaria2.so.0:_ZNK5aria214DownloadEngine20getAuthConfigFactoryEv
libaria2.so.0:_ZNK5aria214EpollEventPoll4goodEv
libaria2.so.0:_ZNK5aria214FatalException4copyEv
libaria2.so.0:_ZNK5aria214HTTPAnnRequest7stoppedEv
libaria2.so.0:_ZNK5aria214HTTPAnnRequest7successEv
libaria2.so.0:_ZNK5aria214HttpConnection17sendBufferIsEmptyEv
libaria2.so.0:_ZNK5aria214HttpConnection8isIssuedERKSt10shared_ptrINS_7SegmentEE
libaria2.so.0:_ZNK5aria214IndexBtMessage8toStringB5cxx11Ev
libaria2.so.0:_ZNK5aria214PeerConnection17sendBufferIsEmptyEv
libaria2.so.0:_ZNK5aria214PeerConnection18getBufferEntrySizeEv
libaria2.so.0:_ZNK5aria214PeerConnection19getMsgPayloadBufferEv
libaria2.so.0:_ZNK5aria214RangeBtMessage8toStringB5cxx11Ev
libaria2.so.0:_ZNK5aria215AbstractCommand13getSegmentManEv
libaria2.so.0:_ZNK5aria215AbstractCommand13shouldProcessEv
libaria2.so.0:_ZNK5aria215AbstractCommand14isProxyDefinedEv
libaria2.so.0:_ZNK5aria215AbstractCommand15getPieceStorageEv
libaria2.so.0:_ZNK5aria215AbstractCommand18createProxyRequestEv
libaria2.so.0:_ZNK5aria215AbstractCommand18getDownloadContextEv
libaria2.so.0:_ZNK5aria215AbstractCommand18resolveProxyMethodERKNSt7__cxx1112basic_stringIcSt11char_traitsIcESaIcEEE
libaria2.so.0:_ZNK5aria215AbstractCommand21calculateMinSplitSizeEv
libaria2.so.0:_ZNK5aria215AbstractCommand9getOptionEv
libaria2.so.0:_ZNK5aria215DHTQueryMessage7getTypeB5cxx11Ev
libaria2.so.0:_ZNK5aria215DHTQueryMessage7isReplyEv
libaria2.so.0:_ZNK5aria215DHTQueryMessage8toStringB5cxx11Ev
libaria2.so.0:_ZNK5aria215DHTRoutingTable10getBucketsERSt6vectorISt10shared_ptrINS_9DHTBucketEESaIS4_EE
libaria2.so.0:_ZNK5aria215DHTRoutingTable11showBucketsEv
libaria2.so.0:_ZNK5aria215DHTRoutingTable12getBucketForEPKh
libaria2.so.0:_ZNK5aria215DHTRoutingTable12getBucketForERKSt10shared_ptrINS_7DHTNodeEE
libaria2.so.0:_ZNK5aria215DHTRoutingTable12getNumBucketEv
libaria2.so.0:_ZNK5aria215DHTRoutingTable16getClosestKNodesERSt6vectorISt10shared_ptrINS_7DHTNodeEESaIS4_EEPKh
libaria2.so.0:_ZNK5aria215DHTRoutingTable7getNodeEPKhRKNSt7__cxx1112basic_stringIcSt11char_traitsIcESaIcEEEt
libaria2.so.0:_ZNK5aria215DHTTokenTracker13generateTokenEPKhRKNSt7__cxx1112basic_stringIcSt11char_traitsIcESaIcEEEt
libaria2.so.0:_ZNK5aria215DHTTokenTracker13generateTokenEPKhRKNSt7__cxx1112basic_stringIcSt11char_traitsIcESaIcEEEtS2_
libaria2.so.0:_ZNK5aria215DHTTokenTracker13validateTokenERKNSt7__cxx1112basic_stringIcSt11char_traitsIcESaIcEEEPKhS8_t
libaria2.so.0:_ZNK5aria215DiskWriterEntry11getFilePathB5cxx11Ev
libaria2.so.0:_ZNK5aria215DiskWriterEntry4sizeEv
libaria2.so.0:_ZNK5aria215DiskWriterEntryltERKS0_
libaria2.so.0:_ZNK5aria215DownloadCommand24checkLowestDownloadSpeedEv
libaria2.so.0:_ZNK5aria215DownloadCommand7noCheckEv
libaria2.so.0:_ZNK5aria215DownloadContext11getBasePathB5cxx11Ev
libaria2.so.0:_ZNK5aria215DownloadContext12getNumPiecesEv
libaria2.so.0:_ZNK5aria215DownloadContext12getPieceHashB5cxx11Em
libaria2.so.0:_ZNK5aria215DownloadContext12hasAttributeENS_20ContextAttributeTypeE
libaria2.so.0:_ZNK5aria215DownloadContext13getAttributesEv
libaria2.so.0:_ZNK5aria215DownloadContext14getTotalLengthEv
libaria2.so.0:_ZNK5aria215DownloadContext20calculateSessionTimeEv
libaria2.so.0:_ZNK5aria215DownloadContext21findFileEntryByOffsetEl
libaria2.so.0:_ZNK5aria215DownloadContext23countRequestedFileEntryEv
libaria2.so.0:_ZNK5aria215DownloadContext26getFirstRequestedFileEntryEv
libaria2.so.0:_ZNK5aria215DownloadContext28isChecksumVerificationNeededEv
libaria2.so.0:_ZNK5aria215DownloadContext31isChecksumVerificationAvailableEv
libaria2.so.0:_ZNK5aria215DownloadContext32isPieceHashVerificationAvailableEv
libaria2.so.0:_ZNK5aria215DownloadHandler9canHandleEPKNS_12RequestGroupE
libaria2.so.0:_ZNK5aria215RequestGroupMan14findServerStatERKNSt7__cxx1112basic_stringIcSt11char_traitsIcESaIcEEES8_
libaria2.so.0:_ZNK5aria215RequestGroupMan14saveServerStatERKNSt7__cxx1112basic_stringIcSt11char_traitsIcESaIcEEE
libaria2.so.0:_ZNK5aria215RequestGroupMan15getDownloadStatEv
libaria2.so.0:_ZNK5aria215RequestGroupMan17countRequestGroupEv
libaria2.so.0:_ZNK5aria215RequestGroupMan18findDownloadResultEm
libaria2.so.0:_ZNK5aria215RequestGroupMan19showDownloadResultsERNS_10OutputFileEb
libaria2.so.0:_ZNK5aria215RequestGroupMan20formatDownloadResultB5cxx11EPKcRKSt10shared_ptrINS_14DownloadResultEE
libaria2.so.0:_ZNK5aria215RequestGroupMan21configureRequestGroupERKSt10shared_ptrINS_12RequestGroupEE
libaria2.so.0:_ZNK5aria215RequestGroupMan24formatDownloadResultFullERNS_10OutputFileEPKcRKSt10shared_ptrINS_14DownloadResultEE
libaria2.so.0:_ZNK5aria215RequestGroupMan25isSameFileBeingDownloadedEPNS_12RequestGroupE
libaria2.so.0:_ZNK5aria215RequestGroupMan9findGroupEm
libaria2.so.0:_ZNK5aria216HashTypeStrongerclERKNS_8ChecksumES3_
libaria2.so.0:_ZNK5aria216HttpRequestEntry22getHttpHeaderProcessorEv
libaria2.so.0:_ZNK5aria216ProtocolDetector16guessTorrentFileERKNSt7__cxx1112basic_stringIcSt11char_traitsIcESaIcEEE
libaria2.so.0:_ZNK5aria216ProtocolDetector16isStreamProtocolERKNSt7__cxx1112basic_stringIcSt11char_traitsIcESaIcEEE
libaria2.so.0:_ZNK5aria216ProtocolDetector17guessMetalinkFileERKNSt7__cxx1112basic_stringIcSt11char_traitsIcESaIcEEE
libaria2.so.0:_ZNK5aria216ProtocolDetector18guessTorrentMagnetERKNSt7__cxx1112basic_stringIcSt11char_traitsIcESaIcEEE
libaria2.so.0:_ZNK5aria217AsyncNameResolver6getFdsEP6fd_setS2_
libaria2.so.0:_ZNK5aria217AsyncNameResolver7getsockEPi
libaria2.so.0:_ZNK5aria217AsyncNameResolvereqERKS0_
libaria2.so.0:_ZNK5aria217AuthConfigFactory21createFtpAuthResolverEPKNS_6OptionE
libaria2.so.0:_ZNK5aria217AuthConfigFactory22createHttpAuthResolverEPKNS_6OptionE
libaria2.so.0:_ZNK5aria217BtBitfieldMessage8toStringB5cxx11Ev
libaria2.so.0:_ZNK5aria217BtExtendedMessage13sendPredicateEv
libaria2.so.0:_ZNK5aria217BtExtendedMessage19getExtensionMessageEv
libaria2.so.0:_ZNK5aria217BtExtendedMessage8toStringB5cxx11Ev
libaria2.so.0:_ZNK5aria217DHTBucketTreeNode9isInRangeEPKh
libaria2.so.0:_ZNK5aria217DHTMessageTracker10countEntryEv
libaria2.so.0:_ZNK5aria217DHTMessageTracker11getEntryForEPKNS_10DHTMessageE
libaria2.so.0:_ZNK5aria217DHTUnknownMessage14getMessageTypeB5cxx11Ev
libaria2.so.0:_ZNK5aria217DHTUnknownMessage7isReplyEv
libaria2.so.0:_ZNK5aria217DHTUnknownMessage8toStringB5cxx11Ev
libaria2.so.0:_ZNK5aria217MetalinkHttpEntryltERKS0_
libaria2.so.0:_ZNK5aria217NetrcAuthResolver22findNetrcAuthenticatorERKNSt7__cxx1112basic_stringIcSt11char_traitsIcESaIcEEE
libaria2.so.0:_ZNK5aria217OpenSSLTLSContext4goodEv
libaria2.so.0:_ZNK5aria217PeerListenCommand7getPortEv
libaria2.so.0:_ZNK5aria217RequestGroupEntry14getNextCommandEv
libaria2.so.0:_ZNK5aria217SessionSerializer13calculateHashB5cxx11Ev
libaria2.so.0:_ZNK5aria217SessionSerializer4saveERKNSt7__cxx1112basic_stringIcSt11char_traitsIcESaIcEEE
libaria2.so.0:_ZNK5aria217SessionSerializer4saveERNS_6IOFileE
libaria2.so.0:_ZNK5aria218BtHandshakeMessage12isDHTEnabledEv
libaria2.so.0:_ZNK5aria218BtHandshakeMessage24isFastExtensionSupportedEv
libaria2.so.0:_ZNK5aria218BtHandshakeMessage26isExtendedMessagingEnabledEv
libaria2.so.0:_ZNK5aria218BtHandshakeMessage8toStringB5cxx11Ev
libaria2.so.0:_ZNK5aria218BtSeederStateChoke9PeerEntryltERKS1_
libaria2.so.0:_ZNK5aria218ColorizedStreamBuf3strB5cxx11Eb
libaria2.so.0:_ZNK5aria218ColorizedStreamBuf3strB5cxx11Ebm
libaria2.so.0:_ZNK5aria218DHTFindNodeMessage14getMessageTypeB5cxx11Ev
libaria2.so.0:_ZNK5aria218DHTFindNodeMessage16toStringOptionalB5cxx11Ev
libaria2.so.0:_ZNK5aria218DHTGetPeersMessage14getMessageTypeB5cxx11Ev
libaria2.so.0:_ZNK5aria218DHTGetPeersMessage16toStringOptionalB5cxx11Ev
libaria2.so.0:_ZNK5aria218DHTNodeLookupEntryeqERKS0_
libaria2.so.0:_ZNK5aria218DHTResponseMessage7getTypeB5cxx11Ev
libaria2.so.0:_ZNK5aria218DHTResponseMessage7isReplyEv
libaria2.so.0:_ZNK5aria218DHTResponseMessage8toStringB5cxx11Ev
libaria2.so.0:_ZNK5aria218DefaultPeerStorage12countAllPeerEv
libaria2.so.0:_ZNK5aria218FtpDownloadCommand19getRequestEndOffsetEv
libaria2.so.0:_ZNK5aria219AdaptiveURISelector13getBestMirrorERKSt5dequeINSt7__cxx1112basic_stringIcSt11char_traitsIcESaIcEEESaIS7_EE
libaria2.so.0:_ZNK5aria219AdaptiveURISelector14getServerStatsERKNSt7__cxx1112basic_stringIcSt11char_traitsIcESaIcEEE
libaria2.so.0:_ZNK5aria219AdaptiveURISelector14getUrisBySpeedERKSt5dequeINSt7__cxx1112basic_stringIcSt11char_traitsIcESaIcEEESaIS7_EEi
libaria2.so.0:_ZNK5aria219AdaptiveURISelector15selectRandomUriERKSt5dequeINSt7__cxx1112basic_stringIcSt11char_traitsIcESaIcEEESaIS7_EE
libaria2.so.0:_ZNK5aria219AdaptiveURISelector17getFirstToTestUriERKSt5dequeINSt7__cxx1112basic_stringIcSt11char_traitsIcESaIcEEESaIS7_EE
libaria2.so.0:_ZNK5aria219AdaptiveURISelector18getNbTestedServersERKSt5dequeINSt7__cxx1112basic_stringIcSt11char_traitsIcESaIcEEESaIS7_EE
libaria2.so.0:_ZNK5aria219AdaptiveURISelector19getMaxDownloadSpeedERKSt5dequeINSt7__cxx1112basic_stringIcSt11char_traitsIcESaIcEEESaIS7_EE
libaria2.so.0:_ZNK5aria219AdaptiveURISelector20getFirstNotTestedUriERKSt5dequeINSt7__cxx1112basic_stringIcSt11char_traitsIcESaIcEEESaIS7_EE
libaria2.so.0:_ZNK5aria219AdaptiveURISelector22adjustLowestSpeedLimitERKSt5dequeINSt7__cxx1112basic_stringIcSt11char_traitsIcESaIcEEESaIS7_EEPNS_15DownloadCommandE
libaria2.so.0:_ZNK5aria219AdaptiveURISelector22getMaxDownloadSpeedUriERKSt5dequeINSt7__cxx1112basic_stringIcSt11char_traitsIcESaIcEEESaIS7_EE
libaria2.so.0:_ZNK5aria219BtLeecherStateChoke10PeerFilterclERKNS0_9PeerEntryE
libaria2.so.0:_ZNK5aria219BtLeecherStateChoke12getLastRoundEv
libaria2.so.0:_ZNK5aria219BtLeecherStateChoke9PeerEntry16getDownloadSpeedEv
libaria2.so.0:_ZNK5aria219BtLeecherStateChoke9PeerEntry17isRegularUnchokerEv
libaria2.so.0:_ZNK5aria219BtLeecherStateChoke9PeerEntry7getPeerEv
libaria2.so.0:_ZNK5aria219BtLeecherStateChoke9PeerEntryltERKS1_
libaria2.so.0:_ZNK5aria219ByteArrayDiskWriter9getStringB5cxx11Ev
libaria2.so.0:_ZNK5aria219DHTPingReplyMessage14getMessageTypeB5cxx11Ev
libaria2.so.0:_ZNK5aria219DefaultPieceStorage13findUsedPieceEm
libaria2.so.0:_ZNK5aria219DefaultPieceStorage31getInFlightPieceCompletedLengthEv
libaria2.so.0:_ZNK5aria219DefaultPieceStorage39getInFlightPieceFilteredCompletedLengthEv
libaria2.so.0:_ZNK5aria219HttpDownloadCommand19getRequestEndOffsetEv
libaria2.so.0:_ZNK5aria219HttpHeaderProcessor15getHeaderStringB5cxx11Ev
libaria2.so.0:_ZNK5aria219HttpHeaderProcessor21getLastBytesProcessedEv
libaria2.so.0:_ZNK5aria219MultiUrlRequestInfo17getDownloadEngineEv
libaria2.so.0:_ZNK5aria219NumberOptionHandler26createPossibleValuesStringB5cxx11Ev
libaria2.so.0:_ZNK5aria219NumberOptionHandler8parseArgERNS_6OptionERKNSt7__cxx1112basic_stringIcSt11char_traitsIcESaIcEEE
libaria2.so.0:_ZNK5aria219NumberOptionHandler8parseArgERNS_6OptionEl
libaria2.so.0:_ZNK5aria219PeerSessionResource11getBitfieldEv
libaria2.so.0:_ZNK5aria219PeerSessionResource12hasAllPiecesEv
libaria2.so.0:_ZNK5aria219PeerSessionResource12uploadLengthEv
libaria2.so.0:_ZNK5aria219PeerSessionResource14downloadLengthEv
libaria2.so.0:_ZNK5aria219PeerSessionResource15shouldBeChokingEv
libaria2.so.0:_ZNK5aria219PeerSessionResource16getExtensionNameEh
libaria2.so.0:_ZNK5aria219PeerSessionResource17getBitfieldLengthEv
libaria2.so.0:_ZNK5aria219PeerSessionResource18getCompletedLengthEv
libaria2.so.0:_ZNK5aria219PeerSessionResource19peerAllowedIndexSetEv
libaria2.so.0:_ZNK5aria219PeerSessionResource21getExtensionMessageIDEi
libaria2.so.0:_ZNK5aria219PeerSessionResource22countOutstandingUploadEv
libaria2.so.0:_ZNK5aria219PeerSessionResource25amAllowedIndexSetContainsEm
libaria2.so.0:_ZNK5aria219PeerSessionResource27peerAllowedIndexSetContainsEm
libaria2.so.0:_ZNK5aria219PeerSessionResource8hasPieceEm
libaria2.so.0:_ZNK5aria219RarestPieceSelector6selectERmPKhm
libaria2.so.0:_ZNK5aria219SftpDownloadCommand19getRequestEndOffsetEv
libaria2.so.0:_ZNK5aria220AbstractAuthResolver20getDefaultAuthConfigEv
libaria2.so.0:_ZNK5aria220AbstractAuthResolver24getUserDefinedAuthConfigEv
libaria2.so.0:_ZNK5aria220AsyncNameResolverMan12getLastErrorB5cxx11Ev
libaria2.so.0:_ZNK5aria220AsyncNameResolverMan18getResolvedAddressERSt6vectorINSt7__cxx1112basic_stringIcSt11char_traitsIcESaIcEEESaIS7_EE
libaria2.so.0:_ZNK5aria220AsyncNameResolverMan7startedEv
libaria2.so.0:_ZNK5aria220AsyncNameResolverMan9getStatusEv
libaria2.so.0:_ZNK5aria220BooleanOptionHandler26createPossibleValuesStringB5cxx11Ev
libaria2.so.0:_ZNK5aria220BooleanOptionHandler8parseArgERNS_6OptionERKNSt7__cxx1112basic_stringIcSt11char_traitsIcESaIcEEE
libaria2.so.0:_ZNK5aria220DHTPeerAnnounceEntry18countPeerAddrEntryEv
libaria2.so.0:_ZNK5aria220DHTPeerAnnounceEntry5emptyEv
libaria2.so.0:_ZNK5aria220DHTPeerAnnounceEntry8getPeersERSt6vectorISt10shared_ptrINS_4PeerEESaIS4_EE
libaria2.so.0:_ZNK5aria220DefaultAuthenticator5matchERKNSt7__cxx1112basic_stringIcSt11char_traitsIcESaIcEEE
libaria2.so.0:_ZNK5aria220DefaultBtInteractive31countReceivedMessageInIterationEv
libaria2.so.0:_ZNK5aria220DefaultOptionHandler26createPossibleValuesStringB5cxx11Ev
libaria2.so.0:_ZNK5aria220DefaultOptionHandler8parseArgERNS_6OptionERKNSt7__cxx1112basic_stringIcSt11char_traitsIcESaIcEEE
libaria2.so.0:_ZNK5aria220LpdMessageDispatcher15isAnnounceReadyEv
libaria2.so.0:_ZNK5aria220RecoverableException4copyEv
libaria2.so.0:_ZNK5aria221AbstractOptionHandler11toTagStringB5cxx11Ev
libaria2.so.0:_ZNK5aria221AbstractOptionHandler13getCumulativeEv
libaria2.so.0:_ZNK5aria221AbstractOptionHandler15getChangeOptionEv
libaria2.so.0:_ZNK5aria221AbstractOptionHandler16getInitialOptionEv
libaria2.so.0:_ZNK5aria221AbstractOptionHandler18getEraseAfterParseEv
libaria2.so.0:_ZNK5aria221AbstractOptionHandler21getChangeGlobalOptionEv
libaria2.so.0:_ZNK5aria221AbstractOptionHandler26getChangeOptionForReservedEv
libaria2.so.0:_ZNK5aria221AbstractOptionHandler5parseERNS_6OptionERKNSt7__cxx1112basic_stringIcSt11char_traitsIcESaIcEEE
libaria2.so.0:_ZNK5aria221AbstractOptionHandler6hasTagEj
libaria2.so.0:_ZNK5aria221AbstractOptionHandler7getNameEv
libaria2.so.0:_ZNK5aria221AbstractOptionHandler8isHiddenEv
libaria2.so.0:_ZNK5aria221BtPostDownloadHandler20getNextRequestGroupsERSt6vectorISt10shared_ptrINS_12RequestGroupEESaIS4_EEPS3_
libaria2.so.0:_ZNK5aria221ChecksumOptionHandler26createPossibleValuesStringB5cxx11Ev
libaria2.so.0:_ZNK5aria221ChecksumOptionHandler8parseArgERNS_6OptionERKNSt7__cxx1112basic_stringIcSt11char_traitsIcESaIcEEE
libaria2.so.0:_ZNK5aria221DHTMessageFactoryImpl10validateIDEPKNS_6StringE
libaria2.so.0:_ZNK5aria221DHTMessageFactoryImpl12validatePortEPKNS_7IntegerE
libaria2.so.0:_ZNK5aria221DHTMessageFactoryImpl13getRemoteNodeEPKhRKNSt7__cxx1112basic_stringIcSt11char_traitsIcESaIcEEEt
libaria2.so.0:_ZNK5aria221FtpNegotiationCommand14poolConnectionEv
libaria2.so.0:_ZNK5aria221HostPortOptionHandler14setHostAndPortERNS_6OptionERKNSt7__cxx1112basic_stringIcSt11char_traitsIcESaIcEEEt
libaria2.so.0:_ZNK5aria221HostPortOptionHandler26createPossibleValuesStringB5cxx11Ev
libaria2.so.0:_ZNK5aria221HostPortOptionHandler8parseArgERNS_6OptionERKNSt7__cxx1112basic_stringIcSt11char_traitsIcESaIcEEE
libaria2.so.0:_ZNK5aria221IndexOutOptionHandler26createPossibleValuesStringB5cxx11Ev
libaria2.so.0:_ZNK5aria221IndexOutOptionHandler8parseArgERNS_6OptionERKNSt7__cxx1112basic_stringIcSt11char_traitsIcESaIcEEE
libaria2.so.0:_ZNK5aria221PriorityPieceSelector6selectERmPKhm
libaria2.so.0:_ZNK5aria221TrackerWatcherCommand9getOptionEv
libaria2.so.0:_ZNK5aria221UTPexExtensionMessage13getFreshPeersEv
libaria2.so.0:_ZNK5aria221UTPexExtensionMessage15getDroppedPeersEv
libaria2.so.0:_ZNK5aria221UTPexExtensionMessage17freshPeersAreFullEv
libaria2.so.0:_ZNK5aria221UTPexExtensionMessage19droppedPeersAreFullEv
libaria2.so.0:_ZNK5aria221UTPexExtensionMessage8toStringB5cxx11Ev
libaria2.so.0:_ZNK5aria222DHTAnnouncePeerMessage14getMessageTypeB5cxx11Ev
libaria2.so.0:_ZNK5aria222DHTAnnouncePeerMessage16toStringOptionalB5cxx11Ev
libaria2.so.0:_ZNK5aria222DHTAnnouncePeerMessage8validateEv
libaria2.so.0:_ZNK5aria222DHTMessageTrackerEntry10getElapsedEv
libaria2.so.0:_ZNK5aria222DHTMessageTrackerEntry11getCallbackEv
libaria2.so.0:_ZNK5aria222DHTMessageTrackerEntry13getTargetNodeEv
libaria2.so.0:_ZNK5aria222DHTMessageTrackerEntry14getMessageTypeB5cxx11Ev
libaria2.so.0:_ZNK5aria222DHTMessageTrackerEntry5matchERKNSt7__cxx1112basic_stringIcSt11char_traitsIcESaIcEEES8_t
libaria2.so.0:_ZNK5aria222DHTMessageTrackerEntry9isTimeoutEv
libaria2.so.0:_ZNK5aria222DHTPeerAnnounceStorage12InfoHashLessclERKSt10shared_ptrINS_20DHTPeerAnnounceEntryEES6_
libaria2.so.0:_ZNK5aria222DHTPeerAnnounceStorage8containsEPKh
libaria2.so.0:_ZNK5aria222HttpProxyOptionHandler26createPossibleValuesStringB5cxx11Ev
libaria2.so.0:_ZNK5aria222HttpProxyOptionHandler8parseArgERNS_6OptionERKNSt7__cxx1112basic_stringIcSt11char_traitsIcESaIcEEE
libaria2.so.0:_ZNK5aria222OptionHandlerException4copyEv
libaria2.so.0:_ZNK5aria222ParameterOptionHandler26createPossibleValuesStringB5cxx11Ev
libaria2.so.0:_ZNK5aria222ParameterOptionHandler8parseArgERNS_6OptionERKNSt7__cxx1112basic_stringIcSt11char_traitsIcESaIcEEE
libaria2.so.0:_ZNK5aria222PeerInteractionCommand9getOptionEv
libaria2.so.0:_ZNK5aria222SftpNegotiationCommand14poolConnectionEv
libaria2.so.0:_ZNK5aria222SftpNegotiationCommand7getPathB5cxx11Ev
libaria2.so.0:_ZNK5aria222Sqlite3MozCookieParser8getQueryEv
libaria2.so.0:_ZNK5aria222UnknownOptionException4copyEv
libaria2.so.0:_ZNK5aria223CumulativeOptionHandler26createPossibleValuesStringB5cxx11Ev
libaria2.so.0:_ZNK5aria223CumulativeOptionHandler8parseArgERNS_6OptionERKNSt7__cxx1112basic_stringIcSt11char_traitsIcESaIcEEE
libaria2.so.0:_ZNK5aria223DHTFindNodeReplyMessage14getMessageTypeB5cxx11Ev
libaria2.so.0:_ZNK5aria223DHTFindNodeReplyMessage16toStringOptionalB5cxx11Ev
libaria2.so.0:_ZNK5aria223DHTGetPeersReplyMessage14getMessageTypeB5cxx11Ev
libaria2.so.0:_ZNK5aria223DHTGetPeersReplyMessage16toStringOptionalB5cxx11Ev
libaria2.so.0:_ZNK5aria223DefaultBtRequestFactory21getTargetPieceIndexesEv
libaria2.so.0:_ZNK5aria223DeprecatedOptionHandler10getArgTypeEv
libaria2.so.0:_ZNK5aria223DeprecatedOptionHandler11toTagStringB5cxx11Ev
libaria2.so.0:_ZNK5aria223DeprecatedOptionHandler12getShortNameEv
libaria2.so.0:_ZNK5aria223DeprecatedOptionHandler13getCumulativeEv
libaria2.so.0:_ZNK5aria223DeprecatedOptionHandler14getDescriptionEv
libaria2.so.0:_ZNK5aria223DeprecatedOptionHandler15getChangeOptionEv
libaria2.so.0:_ZNK5aria223DeprecatedOptionHandler15getDefaultValueB5cxx11Ev
libaria2.so.0:_ZNK5aria223DeprecatedOptionHandler16getInitialOptionEv
libaria2.so.0:_ZNK5aria223DeprecatedOptionHandler18getEraseAfterParseEv
libaria2.so.0:_ZNK5aria223DeprecatedOptionHandler21getChangeGlobalOptionEv
libaria2.so.0:_ZNK5aria223DeprecatedOptionHandler26createPossibleValuesStringB5cxx11Ev
libaria2.so.0:_ZNK5aria223DeprecatedOptionHandler26getChangeOptionForReservedEv
libaria2.so.0:_ZNK5aria223DeprecatedOptionHandler5parseERNS_6OptionERKNSt7__cxx1112basic_stringIcSt11char_traitsIcESaIcEEE
libaria2.so.0:_ZNK5aria223DeprecatedOptionHandler6hasTagEj
libaria2.so.0:_ZNK5aria223DeprecatedOptionHandler7getNameEv
libaria2.so.0:_ZNK5aria223DeprecatedOptionHandler7getPrefEv
libaria2.so.0:_ZNK5aria223DeprecatedOptionHandler8isHiddenEv
libaria2.so.0:_ZNK5aria223HttpSkipResponseCommand14poolConnectionEv
libaria2.so.0:_ZNK5aria223UnitNumberOptionHandler8parseArgERNS_6OptionERKNSt7__cxx1112basic_stringIcSt11char_traitsIcESaIcEEE
libaria2.so.0:_ZNK5aria224Adler32MessageDigestImpl15getDigestLengthEv
libaria2.so.0:_ZNK5aria224DHTMessageDispatcherImpl19countMessageInQueueEv
libaria2.so.0:_ZNK5aria224DownloadFailureException4copyEv
libaria2.so.0:_ZNK5aria224ExtensionMessageRegistry16getExtensionNameEh
libaria2.so.0:_ZNK5aria224ExtensionMessageRegistry21getExtensionMessageIDEi
libaria2.so.0:_ZNK5aria224FloatNumberOptionHandler26createPossibleValuesStringB5cxx11Ev
libaria2.so.0:_ZNK5aria224FloatNumberOptionHandler8parseArgERNS_6OptionERKNSt7__cxx1112basic_stringIcSt11char_traitsIcESaIcEEE
libaria2.so.0:_ZNK5aria224GZipDecodingStreamFilter7getNameB5cxx11Ev
libaria2.so.0:_ZNK5aria224UTMetadataRequestTracker18getAllTrackedIndexEv
libaria2.so.0:_ZNK5aria224UTMetadataRequestTracker5availEv
libaria2.so.0:_ZNK5aria225HandshakeExtensionMessage21getExtensionMessageIDEi
libaria2.so.0:_ZNK5aria225HandshakeExtensionMessage8toStringB5cxx11Ev
libaria2.so.0:_ZNK5aria225IntegerRangeOptionHandler26createPossibleValuesStringB5cxx11Ev
libaria2.so.0:_ZNK5aria225IntegerRangeOptionHandler8parseArgERNS_6OptionERKNSt7__cxx1112basic_stringIcSt11char_traitsIcESaIcEEE
libaria2.so.0:_ZNK5aria226LocalFilePathOptionHandler26createPossibleValuesStringB5cxx11Ev
libaria2.so.0:_ZNK5aria226LocalFilePathOptionHandler8parseArgERNS_6OptionERKNSt7__cxx1112basic_stringIcSt11char_traitsIcESaIcEEE
libaria2.so.0:_ZNK5aria226MetalinkParserStateMachine14getErrorStringB5cxx11Ev
libaria2.so.0:_ZNK5aria226MetalinkParserStateMachine24needsCharactersBufferingEv
libaria2.so.0:_ZNK5aria226MetalinkParserStateMachine8finishedEv
libaria2.so.0:_ZNK5aria227ChunkedDecodingStreamFilter7getNameB5cxx11Ev
libaria2.so.0:_ZNK5aria227DHTAnnouncePeerReplyMessage14getMessageTypeB5cxx11Ev
libaria2.so.0:_ZNK5aria227IteratableChecksumValidator14getTotalLengthEv
libaria2.so.0:_ZNK5aria227IteratableChecksumValidator8finishedEv
libaria2.so.0:_ZNK5aria227MetalinkPostDownloadHandler20getNextRequestGroupsERSt6vectorISt10shared_ptrINS_12RequestGroupEESaIS4_EEPS3_
libaria2.so.0:_ZNK5aria227MultiFileAllocationIterator20getDiskWriterEntriesEv
libaria2.so.0:_ZNK5aria227Sqlite3ChromiumCookieParser8getQueryEv
libaria2.so.0:_ZNK5aria228InitiatorMSEHandshakeCommand9getOptionEv
libaria2.so.0:_ZNK5aria228LongestSequencePieceSelector6selectERmPKhm
libaria2.so.0:_ZNK5aria228PrioritizePieceOptionHandler26createPossibleValuesStringB5cxx11Ev
libaria2.so.0:_ZNK5aria228PrioritizePieceOptionHandler8parseArgERNS_6OptionERKNSt7__cxx1112basic_stringIcSt11char_traitsIcESaIcEEE
libaria2.so.0:_ZNK5aria229UTMetadataPostDownloadHandler20getNextRequestGroupsERSt6vectorISt10shared_ptrINS_12RequestGroupEESaIS4_EEPS3_
libaria2.so.0:_ZNK5aria230UTMetadataDataExtensionMessage12getTotalSizeEv
libaria2.so.0:_ZNK5aria230UTMetadataDataExtensionMessage7getDataB5cxx11Ev
libaria2.so.0:_ZNK5aria230UTMetadataDataExtensionMessage8toStringB5cxx11Ev
libaria2.so.0:_ZNK5aria231ContentTypeRequestGroupCriteria5matchEPKNS_12RequestGroupE
libaria2.so.0:_ZNK5aria232IteratableChunkChecksumValidator14getTotalLengthEv
libaria2.so.0:_ZNK5aria232IteratableChunkChecksumValidator16getCurrentOffsetEv
libaria2.so.0:_ZNK5aria232IteratableChunkChecksumValidator8finishedEv
libaria2.so.0:_ZNK5aria232UTMetadataRejectExtensionMessage8toStringB5cxx11Ev
libaria2.so.0:_ZNK5aria233UTMetadataRequestExtensionMessage8toStringB5cxx11Ev
libaria2.so.0:_ZNK5aria233ValueBaseStructParserStateMachine13getCharactersB5cxx11Ev
libaria2.so.0:_ZNK5aria233ValueBaseStructParserStateMachine20getCurrentFrameValueEv
libaria2.so.0:_ZNK5aria233ValueBaseStructParserStateMachine7getBoolEv
libaria2.so.0:_ZNK5aria233ValueBaseStructParserStateMachine9getNumberEv
libaria2.so.0:_ZNK5aria23rpc20TellStoppedRpcMethod11createEntryEPNS_4DictERKSt10shared_ptrINS_14DownloadResultEEPNS_14DownloadEngineERKSt6vectorINSt7__cxx1112basic_stringIcSt11char_traitsIcESaIcEEESaISH_EE
libaria2.so.0:_ZNK5aria23rpc20TellStoppedRpcMethod8getItemsEPNS_14DownloadEngineE
libaria2.so.0:_ZNK5aria23rpc20TellWaitingRpcMethod11createEntryEPNS_4DictERKSt10shared_ptrINS_12RequestGroupEEPNS_14DownloadEngineERKSt6vectorINSt7__cxx1112basic_stringIcSt11char_traitsIcESaIcEEESaISH_EE
libaria2.so.0:_ZNK5aria23rpc20TellWaitingRpcMethod8getItemsEPNS_14DownloadEngineE
libaria2.so.0:_ZNK5aria23rpc29XmlRpcRequestParserController20getCurrentFrameValueEv
libaria2.so.0:_ZNK5aria23rpc31XmlRpcRequestParserStateMachine13getMethodNameB5cxx11Ev
libaria2.so.0:_ZNK5aria23rpc31XmlRpcRequestParserStateMachine20getCurrentFrameValueEv
libaria2.so.0:_ZNK5aria23rpc31XmlRpcRequestParserStateMachine24needsCharactersBufferingEv
libaria2.so.0:_ZNK5aria23rpc31XmlRpcRequestParserStateMachine8finishedEv
libaria2.so.0:_ZNK5aria240OptimizeConcurrentDownloadsOptionHandler26createPossibleValuesStringB5cxx11Ev
libaria2.so.0:_ZNK5aria240OptimizeConcurrentDownloadsOptionHandler8parseArgERNS_6OptionERKNSt7__cxx1112basic_stringIcSt11char_traitsIcESaIcEEE
libaria2.so.0:_ZNK5aria24Bool3valEv
libaria2.so.0:_ZNK5aria24Bool6acceptERNS_16ValueBaseVisitorE
libaria2.so.0:_ZNK5aria24Dict11containsKeyERKNSt7__cxx1112basic_stringIcSt11char_traitsIcESaIcEEE
libaria2.so.0:_ZNK5aria24Dict3endB5cxx11Ev
libaria2.so.0:_ZNK5aria24Dict3getERKNSt7__cxx1112basic_stringIcSt11char_traitsIcESaIcEEE
libaria2.so.0:_ZNK5aria24Dict4cendB5cxx11Ev
libaria2.so.0:_ZNK5aria24Dict4sizeEv
libaria2.so.0:_ZNK5aria24Dict5beginB5cxx11Ev
libaria2.so.0:_ZNK5aria24Dict5emptyEv
libaria2.so.0:_ZNK5aria24Dict6acceptERNS_16ValueBaseVisitorE
libaria2.so.0:_ZNK5aria24Dict6cbeginB5cxx11Ev
libaria2.so.0:_ZNK5aria24DictixERKNSt7__cxx1112basic_stringIcSt11char_traitsIcESaIcEEE
libaria2.so.0:_ZNK5aria24File10getDirnameB5cxx11Ev
libaria2.so.0:_ZNK5aria24File11getBasenameB5cxx11Ev
libaria2.so.0:_ZNK5aria24File5utimeERKNS_4TimeES3_
libaria2.so.0:_ZNK5aria24List3endEv
libaria2.so.0:_ZNK5aria24List3getEm
libaria2.so.0:_ZNK5aria24List4cendEv
libaria2.so.0:_ZNK5aria24List4sizeEv
libaria2.so.0:_ZNK5aria24List5beginEv
libaria2.so.0:_ZNK5aria24List5emptyEv
libaria2.so.0:_ZNK5aria24List6acceptERNS_16ValueBaseVisitorE
libaria2.so.0:_ZNK5aria24List6cbeginEv
libaria2.so.0:_ZNK5aria24ListixEm
libaria2.so.0:_ZNK5aria24Null6acceptERNS_16ValueBaseVisitorE
libaria2.so.0:_ZNK5aria24Peer11getBitfieldEv
libaria2.so.0:_ZNK5aria24Peer11peerChokingEb
libaria2.so.0:_ZNK5aria24Peer11peerChokingEv
libaria2.so.0:_ZNK5aria24Peer12amInterestedEb
libaria2.so.0:_ZNK5aria24Peer12amInterestedEv
libaria2.so.0:_ZNK5aria24Peer12isDHTEnabledEv
libaria2.so.0:_ZNK5aria24Peer12optUnchokingEv
libaria2.so.0:_ZNK5aria24Peer14peerInterestedEv
libaria2.so.0:_ZNK5aria24Peer15chokingRequiredEv
libaria2.so.0:_ZNK5aria24Peer15shouldBeChokingEv
libaria2.so.0:_ZNK5aria24Peer16getExtensionNameEh
libaria2.so.0:_ZNK5aria24Peer17getBitfieldLengthEv
libaria2.so.0:_ZNK5aria24Peer18getCompletedLengthEv
libaria2.so.0:_ZNK5aria24Peer18getLastAmUnchokingEv
libaria2.so.0:_ZNK5aria24Peer21getExtensionMessageIDEi
libaria2.so.0:_ZNK5aria24Peer21getLastDownloadUpdateEv
libaria2.so.0:_ZNK5aria24Peer21isInAmAllowedIndexSetEm
libaria2.so.0:_ZNK5aria24Peer22countOutstandingUploadEv
libaria2.so.0:_ZNK5aria24Peer22getPeerAllowedIndexSetEv
libaria2.so.0:_ZNK5aria24Peer22getSessionUploadLengthEv
libaria2.so.0:_ZNK5aria24Peer22isFastExtensionEnabledEv
libaria2.so.0:_ZNK5aria24Peer23isInPeerAllowedIndexSetEm
libaria2.so.0:_ZNK5aria24Peer24countPeerAllowedIndexSetEv
libaria2.so.0:_ZNK5aria24Peer24getSessionDownloadLengthEv
libaria2.so.0:_ZNK5aria24Peer26isExtendedMessagingEnabledEv
libaria2.so.0:_ZNK5aria24Peer8hasPieceEm
libaria2.so.0:_ZNK5aria24Peer8snubbingEv
libaria2.so.0:_ZNK5aria24Peer9amChokingEb
libaria2.so.0:_ZNK5aria24Peer9amChokingEv
libaria2.so.0:_ZNK5aria24Time10differenceERKS0_
libaria2.so.0:_ZNK5aria24Time10differenceEv
libaria2.so.0:_ZNK5aria24Time10toHTTPDateB5cxx11Ev
libaria2.so.0:_ZNK5aria24json10JsonParser8stateTopEv
libaria2.so.0:_ZNK5aria25Netrc17findAuthenticatorERKNSt7__cxx1112basic_stringIcSt11char_traitsIcESaIcEEE
libaria2.so.0:_ZNK5aria25Netrc17getAuthenticatorsEv
libaria2.so.0:_ZNK5aria25Piece10countBlockEv
libaria2.so.0:_ZNK5aria25Piece11getBitfieldEv
libaria2.so.0:_ZNK5aria25Piece11isBlockUsedEm
libaria2.so.0:_ZNK5aria25Piece13pieceCompleteEv
libaria2.so.0:_ZNK5aria25Piece14getBlockLengthEm
libaria2.so.0:_ZNK5aria25Piece14getBlockLengthEv
libaria2.so.0:_ZNK5aria25Piece16isHashCalculatedEv
libaria2.so.0:_ZNK5aria25Piece17countMissingBlockEv
libaria2.so.0:_ZNK5aria25Piece17getBitfieldLengthEv
libaria2.so.0:_ZNK5aria25Piece18countCompleteBlockEv
libaria2.so.0:_ZNK5aria25Piece25getAllMissingBlockIndexesEPhm
libaria2.so.0:_ZNK5aria25Piece26getMissingUnusedBlockIndexERSt6vectorImSaImEEm
libaria2.so.0:_ZNK5aria25Piece26getMissingUnusedBlockIndexERm
libaria2.so.0:_ZNK5aria25Piece36getFirstMissingBlockIndexWithoutLockERm
libaria2.so.0:_ZNK5aria25Piece6usedByEl
libaria2.so.0:_ZNK5aria25Piece8hasBlockEm
libaria2.so.0:_ZNK5aria25Piece8toStringB5cxx11Ev
libaria2.so.0:_ZNK5aria25Range16getContentLengthEv
libaria2.so.0:_ZNK5aria25RangeeqERKS0_
libaria2.so.0:_ZNK5aria25RangeneERKS0_
libaria2.so.0:_ZNK5aria25Timer10differenceERKS0_
libaria2.so.0:_ZNK5aria25Timer10differenceEv
libaria2.so.0:_ZNK5aria25Timer6isZeroEv
libaria2.so.0:_ZNK5aria26Cookie16toNsCookieFormatB5cxx11Ev
libaria2.so.0:_ZNK5aria26Cookie5matchERKNSt7__cxx1112basic_stringIcSt11char_traitsIcESaIcEEES8_lb
libaria2.so.0:_ZNK5aria26Cookie8toStringB5cxx11Ev
libaria2.so.0:_ZNK5aria26Cookie9isExpiredEl
libaria2.so.0:_ZNK5aria26CookieeqERKS0_
libaria2.so.0:_ZNK5aria26CookieneERKS0_
libaria2.so.0:_ZNK5aria26IOFilecvMS0_KFvvEEv
libaria2.so.0:_ZNK5aria26Option10emptyLocalEv
libaria2.so.0:_ZNK5aria26Option10getAsLLIntEPKNS_4PrefE
libaria2.so.0:_ZNK5aria26Option11getAsDoubleEPKNS_4PrefE
libaria2.so.0:_ZNK5aria26Option12definedLocalEPKNS_4PrefE
libaria2.so.0:_ZNK5aria26Option3getB5cxx11EPKNS_4PrefE
libaria2.so.0:_ZNK5aria26Option5blankEPKNS_4PrefE
libaria2.so.0:_ZNK5aria26Option7definedEPKNS_4PrefE
libaria2.so.0:_ZNK5aria26Option8getAsIntEPKNS_4PrefE
libaria2.so.0:_ZNK5aria26Option9getAsBoolEPKNS_4PrefE
libaria2.so.0:_ZNK5aria26Option9getParentEv
libaria2.so.0:_ZNK5aria26String1sB5cxx11Ev
libaria2.so.0:_ZNK5aria26String2ucEv
libaria2.so.0:_ZNK5aria26String6acceptERNS_16ValueBaseVisitorE
libaria2.so.0:_ZNK5aria26String8popValueB5cxx11Ev
libaria2.so.0:_ZNK5aria27DHTNode14isQuestionableEv
libaria2.so.0:_ZNK5aria27DHTNode5isBadEv
libaria2.so.0:_ZNK5aria27DHTNode6isGoodEv
libaria2.so.0:_ZNK5aria27DHTNode8toStringB5cxx11Ev
libaria2.so.0:_ZNK5aria27DHTNodeeqERKS0_
libaria2.so.0:_ZNK5aria27DHTNodeltERKS0_
libaria2.so.0:_ZNK5aria27DHTNodeneERKS0_
libaria2.so.0:_ZNK5aria27GroupId11toAbbrevHexB5cxx11Ev
libaria2.so.0:_ZNK5aria27GroupId5toHexB5cxx11Ev
libaria2.so.0:_ZNK5aria27Integer1iEv
libaria2.so.0:_ZNK5aria27Integer6acceptERNS_16ValueBaseVisitorE
libaria2.so.0:_ZNK5aria27NetStat17getMaxUploadSpeedEv
libaria2.so.0:_ZNK5aria27NetStat19getMaxDownloadSpeedEv
libaria2.so.0:_ZNK5aria27Request10getURIHostB5cxx11Ev
libaria2.so.0:_ZNK5aria28Checksum7isEmptyEv
libaria2.so.0:_ZNK5aria28DNSCache10CacheEntry11getGoodAddrB5cxx11Ev
libaria2.so.0:_ZNK5aria28DNSCache10CacheEntry4findERKNSt7__cxx1112basic_stringIcSt11char_traitsIcESaIcEEE
libaria2.so.0:_ZNK5aria28DNSCache10CacheEntry8containsERKNSt7__cxx1112basic_stringIcSt11char_traitsIcESaIcEEE
libaria2.so.0:_ZNK5aria28DNSCache10CacheEntryeqERKS1_
libaria2.so.0:_ZNK5aria28DNSCache10CacheEntryltERKS1_
libaria2.so.0:_ZNK5aria28DNSCache4findERKNSt7__cxx1112basic_stringIcSt11char_traitsIcESaIcEEEt
libaria2.so.0:_ZNK5aria28GZipFile5isEOFEv
libaria2.so.0:_ZNK5aria28GZipFile6isOpenEv
libaria2.so.0:_ZNK5aria28GZipFile7isErrorEv
libaria2.so.0:_ZNK5aria28PeerStat17getAvgUploadSpeedEv
libaria2.so.0:_ZNK5aria28PeerStat17getMaxUploadSpeedEv
libaria2.so.0:_ZNK5aria28PeerStat19getAvgDownloadSpeedEv
libaria2.so.0:_ZNK5aria28PeerStat19getMaxDownloadSpeedEv
libaria2.so.0:_ZNK5aria28PeerStat20getDownloadStartTimeEv
libaria2.so.0:_ZNK5aria28PeerStat22getSessionUploadLengthEv
libaria2.so.0:_ZNK5aria28PeerStat24getSessionDownloadLengthEv
libaria2.so.0:_ZNK5aria28PeerStat9getStatusEv
libaria2.so.0:_ZNK5aria29BasicCred11isActivatedEv
libaria2.so.0:_ZNK5aria29BasicCredeqERKS0_
libaria2.so.0:_ZNK5aria29BasicCredltERKS0_
libaria2.so.0:_ZNK5aria29DHTBucket12getGoodNodesERSt6vectorISt10shared_ptrINS_7DHTNodeEESaIS4_EE
libaria2.so.0:_ZNK5aria29DHTBucket12needsRefreshEv
libaria2.so.0:_ZNK5aria29DHTBucket12splitAllowedEv
libaria2.so.0:_ZNK5aria29DHTBucket15getRandomNodeIDEPh
libaria2.so.0:_ZNK5aria29DHTBucket22getLRUQuestionableNodeEv
libaria2.so.0:_ZNK5aria29DHTBucket24containsQuestionableNodeEv
libaria2.so.0:_ZNK5aria29DHTBucket7getNodeEPKhRKNSt7__cxx1112basic_stringIcSt11char_traitsIcESaIcEEEt
libaria2.so.0:_ZNK5aria29DHTBucket9isInRangeEPKh
libaria2.so.0:_ZNK5aria29DHTBucket9isInRangeEPKhS2_S2_
libaria2.so.0:_ZNK5aria29DHTBucket9isInRangeERKSt10shared_ptrINS_7DHTNodeEE
libaria2.so.0:_ZNK5aria29DHTBucketeqERKS0_
libaria2.so.0:_ZNK5aria29DlAbortEx4copyEv
libaria2.so.0:_ZNK5aria29DlRetryEx4copyEv
libaria2.so.0:_ZNK5aria29Exception10stackTraceB5cxx11Ev
libaria2.so.0:_ZNK5aria29Exception4whatEv
libaria2.so.0:_ZNK5aria29FileEntry10getDirnameB5cxx11Ev
libaria2.so.0:_ZNK5aria29FileEntry11getBasenameB5cxx11Ev
libaria2.so.0:_ZNK5aria29FileEntry13RequestFasterclERKSt10shared_ptrINS_7RequestEES6_
libaria2.so.0:_ZNK5aria29FileEntry15emptyRequestUriEv
libaria2.so.0:_ZNK5aria29FileEntry18countPooledRequestEv
libaria2.so.0:_ZNK5aria29FileEntry20countInFlightRequestEv
libaria2.so.0:_ZNK5aria29FileEntry6existsEv
libaria2.so.0:_ZNK5aria29FileEntry7getUrisB5cxx11Ev
libaria2.so.0:_ZNK5aria29FileEntry7gtoloffEl
libaria2.so.0:_ZNK5aria29FileEntryltERKS0_
libaria2.so.0:_ZNK5aria29Signature4saveERKNSt7__cxx1112basic_stringIcSt11char_traitsIcESaIcEEE
libaria2.so.0:_ZNK5aria29SpeedCalc17calculateAvgSpeedEv
libaria2.so.0:_ZThn24_N5aria219CheckIntegrityEntry14getTotalLengthEv
libaria2.so.0:_ZThn24_N5aria219CheckIntegrityEntry16getCurrentLengthEv
libaria2.so.0:_ZThn24_N5aria219CheckIntegrityEntry8finishedEv
libaria2.so.0:_ZThn24_N5aria219CheckIntegrityEntryD0Ev
libaria2.so.0:_ZThn24_N5aria219CheckIntegrityEntryD1Ev
libaria2.so.0:_ZThn24_N5aria219FileAllocationEntry14getTotalLengthEv
libaria2.so.0:_ZThn24_N5aria219FileAllocationEntry16getCurrentLengthEv
libaria2.so.0:_ZThn24_N5aria219FileAllocationEntry8finishedEv
libaria2.so.0:_ZThn24_N5aria219FileAllocationEntryD0Ev
libaria2.so.0:_ZThn24_N5aria219FileAllocationEntryD1Ev
libaria2.so.0:_ZThn24_N5aria221BtCheckIntegrityEntryD0Ev
libaria2.so.0:_ZThn24_N5aria221BtCheckIntegrityEntryD1Ev
libaria2.so.0:_ZThn24_N5aria221BtFileAllocationEntryD0Ev
libaria2.so.0:_ZThn24_N5aria221BtFileAllocationEntryD1Ev
libaria2.so.0:_ZThn24_N5aria225StreamCheckIntegrityEntryD0Ev
libaria2.so.0:_ZThn24_N5aria225StreamCheckIntegrityEntryD1Ev
libaria2.so.0:_ZThn24_N5aria225StreamFileAllocationEntryD0Ev
libaria2.so.0:_ZThn24_N5aria225StreamFileAllocationEntryD1Ev
libaria2.so.0:_ZThn24_N5aria227ChecksumCheckIntegrityEntryD0Ev
libaria2.so.0:_ZThn24_N5aria227ChecksumCheckIntegrityEntryD1Ev
libaria2.so.0:_ZThn24_N5aria228PieceHashCheckIntegrityEntryD0Ev
libaria2.so.0:_ZThn24_N5aria228PieceHashCheckIntegrityEntryD1Ev
libaria2.so.0:uri_split
libaria2.so.0:wslay_byteswap64
libaria2.so.0:wslay_event_config_set_allowed_rsv_bits
libaria2.so.0:wslay_event_config_set_callbacks
libaria2.so.0:wslay_event_config_set_max_recv_msg_length
libaria2.so.0:wslay_event_config_set_no_buffering
libaria2.so.0:wslay_event_context_client_init
libaria2.so.0:wslay_event_context_free
libaria2.so.0:wslay_event_context_server_init
libaria2.so.0:wslay_event_get_close_received
libaria2.so.0:wslay_event_get_close_sent
libaria2.so.0:wslay_event_get_queued_msg_count
libaria2.so.0:wslay_event_get_queued_msg_length
libaria2.so.0:wslay_event_get_read_enabled
libaria2.so.0:wslay_event_get_status_code_received
libaria2.so.0:wslay_event_get_status_code_sent
libaria2.so.0:wslay_event_get_write_enabled
libaria2.so.0:wslay_event_queue_close
libaria2.so.0:wslay_event_queue_fragmented_msg
libaria2.so.0:wslay_event_queue_fragmented_msg_ex
libaria2.so.0:wslay_event_queue_msg
libaria2.so.0:wslay_event_queue_msg_ex
libaria2.so.0:wslay_event_recv
libaria2.so.0:wslay_event_send
libaria2.so.0:wslay_event_set_error
libaria2.so.0:wslay_event_shutdown_read
libaria2.so.0:wslay_event_shutdown_write
libaria2.so.0:wslay_event_want_read
libaria2.so.0:wslay_event_want_write
libaria2.so.0:wslay_frame_context_free
libaria2.so.0:wslay_frame_context_init
libaria2.so.0:wslay_frame_recv
libaria2.so.0:wslay_frame_send
libaria2.so.0:wslay_queue_empty
libaria2.so.0:wslay_queue_free
libaria2.so.0:wslay_queue_new
libaria2.so.0:wslay_queue_pop
libaria2.so.0:wslay_queue_push
libaria2.so.0:wslay_queue_push_front
libaria2.so.0:wslay_queue_tail
libaria2.so.0:wslay_queue_top
